

Microchip Technology PIC18 LITE Macro Assembler V1.32 build 58300 
                                                                                               Mon Nov 03 19:04:58 2014

Microchip Technology Omniscient Code Generator (Lite mode) build 58300
     1                           	processor	18F46J50
     2                           	fnconf	param0,??,?,0
     3                           	opt	pw 120
     4                           	opt	lm
     5                           	psect	idataCOMRAM,global,class=CODE,delta=1
     6                           	psect	nvBANK0,global,class=BANK0,space=1,delta=1
     7                           	psect	cinit,global,reloc=2,class=CODE,delta=1
     8                           	psect	bssCOMRAM,global,class=COMRAM,space=1,delta=1
     9                           	psect	dataCOMRAM,global,class=COMRAM,space=1,delta=1
    10                           	psect	bssBANK0,global,class=BANK0,space=1,delta=1
    11                           	psect	bssBANK1,global,class=BANK1,space=1,delta=1
    12                           	psect	bssBANK2,global,class=BANK2,space=1,delta=1
    13                           	psect	bssBANK3,global,class=BANK3,space=1,delta=1
    14                           	psect	bssBANK4,global,class=BANK4,space=1,delta=1
    15                           	psect	cstackBANK2,global,class=BANK2,space=1,delta=1
    16                           	psect	cstackBANK1,global,class=BANK1,space=1,delta=1
    17                           	psect	cstackBANK0,global,class=BANK0,space=1,delta=1
    18                           	psect	cstackCOMRAM,global,class=COMRAM,space=1,delta=1
    19                           	psect	text0,global,reloc=2,class=CODE,delta=1
    20                           	psect	text1,global,reloc=2,class=CODE,delta=1
    21                           	psect	text2,global,reloc=2,class=CODE,delta=1
    22                           	psect	text3,global,reloc=2,class=CODE,delta=1
    23                           	psect	text4,global,reloc=2,class=CODE,delta=1
    24                           	psect	text5,global,reloc=2,class=CODE,delta=1
    25                           	psect	text6,global,reloc=2,class=CODE,delta=1
    26                           	psect	text7,global,reloc=2,class=CODE,delta=1
    27                           	psect	text8,global,reloc=2,class=CODE,delta=1
    28                           	psect	text9,global,reloc=2,class=CODE,delta=1
    29                           	psect	text10,global,reloc=2,class=CODE,delta=1
    30                           	psect	text11,global,reloc=2,class=CODE,delta=1
    31                           	psect	text12,global,reloc=2,class=CODE,delta=1
    32                           	psect	text13,global,reloc=2,class=CODE,delta=1
    33                           	psect	text14,global,reloc=2,class=CODE,delta=1
    34                           	psect	text15,global,reloc=2,class=CODE,delta=1
    35                           	psect	text16,global,reloc=2,class=CODE,delta=1
    36                           	psect	text17,global,reloc=2,class=CODE,delta=1
    37                           	psect	text18,global,reloc=2,class=CODE,delta=1
    38                           	psect	text19,global,reloc=2,class=CODE,delta=1
    39                           	psect	text20,global,reloc=2,class=CODE,delta=1
    40                           	psect	text21,global,reloc=2,class=CODE,delta=1
    41                           	psect	text22,global,reloc=2,class=CODE,delta=1
    42                           	psect	text23,global,reloc=2,class=CODE,delta=1
    43                           	psect	text24,global,reloc=2,class=CODE,delta=1
    44                           	psect	text25,global,reloc=2,class=CODE,delta=1
    45                           	psect	text26,global,reloc=2,class=CODE,delta=1
    46                           	psect	text27,global,reloc=2,class=CODE,delta=1
    47                           	psect	text28,global,reloc=2,class=CODE,delta=1
    48                           	psect	text29,global,reloc=2,class=CODE,delta=1
    49                           	psect	text30,global,reloc=2,class=CODE,delta=1
    50                           	psect	text31,global,reloc=2,class=CODE,delta=1
    51                           	psect	text32,global,reloc=2,class=CODE,delta=1
    52                           	psect	text33,global,reloc=2,class=CODE,delta=1
    53                           	psect	text34,global,reloc=2,class=CODE,delta=1
    54                           	psect	intcodelo,global,reloc=2,class=CODE,delta=1
    55                           	psect	text36,global,reloc=2,class=CODE,delta=1
    56                           	psect	text37,global,reloc=2,class=CODE,delta=1
    57                           	psect	text38,global,reloc=2,class=CODE,delta=1
    58                           	psect	text39,global,reloc=2,class=CODE,delta=1
    59                           	psect	text40,global,reloc=2,class=CODE,delta=1
    60                           	psect	text41,global,reloc=2,class=CODE,delta=1
    61                           	psect	text42,global,reloc=2,class=CODE,delta=1
    62                           	psect	text43,global,reloc=2,class=CODE,delta=1
    63                           	psect	text44,global,reloc=2,class=CODE,delta=1
    64                           	psect	text45,global,reloc=2,class=CODE,delta=1
    65                           	psect	text46,global,reloc=2,class=CODE,delta=1
    66                           	psect	text47,global,reloc=2,class=CODE,delta=1
    67                           	psect	text48,global,reloc=2,class=CODE,delta=1
    68                           	psect	text49,global,reloc=2,class=CODE,delta=1
    69                           	psect	intcode,global,reloc=2,class=CODE,delta=1
    70                           	psect	intcode_body,global,reloc=2,class=CODE,delta=1
    71                           	psect	text51,global,reloc=2,class=CODE,delta=1
    72                           	psect	text52,global,reloc=2,class=CODE,delta=1
    73                           	psect	text53,global,reloc=2,class=CODE,delta=1
    74                           	psect	text54,global,reloc=2,class=CODE,delta=1
    75                           	psect	text55,global,reloc=2,class=CODE,delta=1
    76                           	psect	text56,global,reloc=2,class=CODE,delta=1
    77                           	psect	text57,global,reloc=2,class=CODE,delta=1
    78                           	psect	text58,global,reloc=2,class=CODE,delta=1
    79                           	psect	text59,global,reloc=2,class=CODE,delta=1
    80                           	psect	text60,global,reloc=2,class=CODE,delta=1
    81                           	psect	text61,global,reloc=2,class=CODE,delta=1
    82                           	psect	text62,global,reloc=2,class=CODE,delta=1
    83                           	psect	text63,global,reloc=2,class=CODE,delta=1
    84                           	psect	intsave_regs,global,class=BIGRAM,space=1,delta=1
    85                           	psect	param0,global,class=BANK0,space=1,delta=1
    86  0000                     
    87                           	psect	idataCOMRAM
    88  001C50                     __pidataCOMRAM:
    89                           	opt stack 0
    90                           
    91                           ;initializer for uart_transmit_interrupt_handler@done
    92  001C50  01                 	db	1
    93  0000                     _BAUDCONbits	set	3966
    94  0000                     _INTCONbits	set	4082
    95  0000                     _IPR1bits	set	3999
    96  0000                     _IPR2bits	set	4002
    97  0000                     _LATB	set	3978
    98  0000                     _LATBbits	set	3978
    99  0000                     _LATDbits	set	3980
   100  0000                     _OSCCON	set	4051
   101  0000                     _OSCCONbits	set	4051
   102  0000                     _OSCTUNEbits	set	3995
   103  0000                     _PIE1bits	set	3997
   104  0000                     _PIR1bits	set	3998
   105  0000                     _PIR2bits	set	4001
   106  0000                     _PORTBbits	set	3969
   107  0000                     _RCONbits	set	4048
   108  0000                     _RCREG1	set	4015
   109  0000                     _RCSTA1bits	set	4012
   110  0000                     _SPBRG1	set	4016
   111  0000                     _SPBRGH1	set	3967
   112  0000                     _SSP1ADD	set	4040
   113  0000                     _SSP1BUF	set	4041
   114  0000                     _SSP1CON1bits	set	4038
   115  0000                     _SSP1CON2bits	set	4037
   116  0000                     _SSP1STATbits	set	4039
   117  0000                     _SSPADD	set	4040
   118  0000                     _SSPBUF	set	4041
   119  0000                     _SSPCON1	set	4038
   120  0000                     _SSPCON1bits	set	4038
   121  0000                     _SSPCON2	set	4037
   122  0000                     _SSPCON2bits	set	4037
   123  0000                     _SSPSTAT	set	4039
   124  0000                     _SSPSTATbits	set	4039
   125  0000                     _T0CON	set	4053
   126  0000                     _T0CONbits	set	4053
   127  0000                     _T1CON	set	4045
   128  0000                     _T1CONbits	set	4045
   129  0000                     _T1GCON	set	3994
   130  0000                     _T1GCONbits	set	3994
   131  0000                     _TMR0H	set	4055
   132  0000                     _TMR0L	set	4054
   133  0000                     _TMR1H	set	4047
   134  0000                     _TMR1L	set	4046
   135  0000                     _TMR3L	set	3962
   136  0000                     _TRISB	set	3987
   137  0000                     _TRISBbits	set	3987
   138  0000                     _TRISCbits	set	3988
   139  0000                     _TRISD	set	3989
   140  0000                     _TXREG1	set	4014
   141  0000                     _TXSTA1bits	set	4013
   142                           
   143                           	psect	nvBANK0
   144  0000CC                     __pnvBANK0:
   145                           	opt stack 0
   146  0000CC                     _ic_ptr:
   147                           	opt stack 0
   148  0000CC                     	ds	2
   149                           
   150                           ; #config settings
   151  0000                     
   152                           	psect	cinit
   153  001438                     __pcinit:
   154                           	opt stack 0
   155  001438                     start_initialization:
   156                           	opt stack 0
   157  001438                     __initialization:
   158                           	opt stack 0
   159                           
   160                           ; Clear objects allocated to BANK4 (138 bytes)
   161  001438  EE04  F000         	lfsr	0,__pbssBANK4
   162  00143C  0E8A               	movlw	138
   163  00143E                     clear_0:
   164  00143E  6AEE               	clrf	postinc0,c
   165  001440  06E8               	decf	wreg,f,c
   166  001442  E1FD               	bnz	clear_0
   167                           
   168                           ; Clear objects allocated to BANK3 (138 bytes)
   169  001444  EE03  F000         	lfsr	0,__pbssBANK3
   170  001448  0E8A               	movlw	138
   171  00144A                     clear_1:
   172  00144A  6AEE               	clrf	postinc0,c
   173  00144C  06E8               	decf	wreg,f,c
   174  00144E  E1FD               	bnz	clear_1
   175                           
   176                           ; Clear objects allocated to BANK2 (138 bytes)
   177  001450  EE02  F000         	lfsr	0,__pbssBANK2
   178  001454  0E8A               	movlw	138
   179  001456                     clear_2:
   180  001456  6AEE               	clrf	postinc0,c
   181  001458  06E8               	decf	wreg,f,c
   182  00145A  E1FD               	bnz	clear_2
   183                           
   184                           ; Clear objects allocated to BANK1 (138 bytes)
   185  00145C  EE01  F000         	lfsr	0,__pbssBANK1
   186  001460  0E8A               	movlw	138
   187  001462                     clear_3:
   188  001462  6AEE               	clrf	postinc0,c
   189  001464  06E8               	decf	wreg,f,c
   190  001466  E1FD               	bnz	clear_3
   191                           
   192                           ; Clear objects allocated to BANK0 (38 bytes)
   193  001468  EE00  F0A6         	lfsr	0,__pbssBANK0
   194  00146C  0E26               	movlw	38
   195  00146E                     clear_4:
   196  00146E  6AEE               	clrf	postinc0,c
   197  001470  06E8               	decf	wreg,f,c
   198  001472  E1FD               	bnz	clear_4
   199                           
   200                           ; Clear objects allocated to COMRAM (7 bytes)
   201  001474  EE00  F04A         	lfsr	0,__pbssCOMRAM
   202  001478  0E07               	movlw	7
   203  00147A                     clear_5:
   204  00147A  6AEE               	clrf	postinc0,c
   205  00147C  06E8               	decf	wreg,f,c
   206  00147E  E1FD               	bnz	clear_5
   207                           
   208                           ; Initialize objects allocated to COMRAM (1 bytes)
   209                           ; load TBLPTR registers with __pidataCOMRAM
   210  001480  0E50               	movlw	low __pidataCOMRAM
   211  001482  6EF6               	movwf	tblptrl,c
   212  001484  0E1C               	movlw	high __pidataCOMRAM
   213  001486  6EF7               	movwf	tblptrh,c
   214  001488  0E00               	movlw	low (__pidataCOMRAM shr (0+16))
   215  00148A  6EF8               	movwf	tblptru,c
   216  00148C  0009               	tblrd		*+	;fetch initializer
   217  00148E  CFF5 F051          	movff	tablat,__pdataCOMRAM
   218  001492                     end_of_initialization:
   219                           	opt stack 0
   220  001492                     __end_of__initialization:
   221                           	opt stack 0
   222  001492  0E00               	movlw	low (__Lmediumconst shr (0+16))
   223  001494  6EF8               	movwf	tblptru,c
   224  001496  0100               	movlb	0
   225  001498  EF6A  F002         	goto	_main	;jump to C main() function
   226                           tblptru	equ	0xFF8
   227                           tblptrh	equ	0xFF7
   228                           tblptrl	equ	0xFF6
   229                           tablat	equ	0xFF5
   230                           postinc0	equ	0xFEE
   231                           wreg	equ	0xFE8
   232                           
   233                           	psect	bssCOMRAM
   234  00004A                     __pbssCOMRAM:
   235                           	opt stack 0
   236  00004A                     uart_frame_message@sent_counter:
   237                           	opt stack 0
   238  00004A                     	ds	1
   239  00004B                     uart_receive_interrupt_handler@done:
   240                           	opt stack 0
   241  00004B                     	ds	1
   242  00004C                     uart_receive_interrupt_handler@error:
   243                           	opt stack 0
   244  00004C                     	ds	1
   245  00004D                     uart_receive_interrupt_handler@index:
   246                           	opt stack 0
   247  00004D                     	ds	1
   248  00004E                     uart_receive_interrupt_handler@received_counter:
   249                           	opt stack 0
   250  00004E                     	ds	1
   251  00004F                     uart_receive_interrupt_handler@start_byte_bad:
   252                           	opt stack 0
   253  00004F                     	ds	1
   254  000050                     uart_transmit_interrupt_handler@index:
   255                           	opt stack 0
   256  000050                     	ds	1
   257                           tblptru	equ	0xFF8
   258                           tblptrh	equ	0xFF7
   259                           tblptrl	equ	0xFF6
   260                           tablat	equ	0xFF5
   261                           postinc0	equ	0xFEE
   262                           wreg	equ	0xFE8
   263                           
   264                           	psect	dataCOMRAM
   265  000051                     __pdataCOMRAM:
   266                           	opt stack 0
   267  000051                     uart_transmit_interrupt_handler@done:
   268                           	opt stack 0
   269  000051                     	ds	1
   270                           tblptru	equ	0xFF8
   271                           tblptrh	equ	0xFF7
   272                           tblptrl	equ	0xFF6
   273                           tablat	equ	0xFF5
   274                           postinc0	equ	0xFEE
   275                           wreg	equ	0xFE8
   276                           
   277                           	psect	bssBANK0
   278  0000A6                     __pbssBANK0:
   279                           	opt stack 0
   280  0000A6                     uart_receive_interrupt_handler@frame:
   281                           	opt stack 0
   282  0000A6                     	ds	18
   283  0000B8                     _MQ_Main_Willing_to_block:
   284                           	opt stack 0
   285  0000B8                     	ds	1
   286  0000B9                     timer1_lthread@move_counter:
   287                           	opt stack 0
   288  0000B9                     	ds	1
   289  0000BA                     uart_transmit_interrupt_handler@message:
   290                           	opt stack 0
   291  0000BA                     	ds	18
   292                           tblptru	equ	0xFF8
   293                           tblptrh	equ	0xFF7
   294                           tblptrl	equ	0xFF6
   295                           tablat	equ	0xFF5
   296                           postinc0	equ	0xFEE
   297                           wreg	equ	0xFE8
   298                           
   299                           	psect	bssBANK1
   300  000100                     __pbssBANK1:
   301                           	opt stack 0
   302  000100                     _ToMainLow_MQ:
   303                           	opt stack 0
   304  000100                     	ds	138
   305                           tblptru	equ	0xFF8
   306                           tblptrh	equ	0xFF7
   307                           tblptrl	equ	0xFF6
   308                           tablat	equ	0xFF5
   309                           postinc0	equ	0xFEE
   310                           wreg	equ	0xFE8
   311                           
   312                           	psect	bssBANK2
   313  000200                     __pbssBANK2:
   314                           	opt stack 0
   315  000200                     _ToMainHigh_MQ:
   316                           	opt stack 0
   317  000200                     	ds	138
   318                           tblptru	equ	0xFF8
   319                           tblptrh	equ	0xFF7
   320                           tblptrl	equ	0xFF6
   321                           tablat	equ	0xFF5
   322                           postinc0	equ	0xFEE
   323                           wreg	equ	0xFE8
   324                           
   325                           	psect	bssBANK3
   326  000300                     __pbssBANK3:
   327                           	opt stack 0
   328  000300                     _FromMainLow_MQ:
   329                           	opt stack 0
   330  000300                     	ds	138
   331                           tblptru	equ	0xFF8
   332                           tblptrh	equ	0xFF7
   333                           tblptrl	equ	0xFF6
   334                           tablat	equ	0xFF5
   335                           postinc0	equ	0xFEE
   336                           wreg	equ	0xFE8
   337                           
   338                           	psect	bssBANK4
   339  000400                     __pbssBANK4:
   340                           	opt stack 0
   341  000400                     _FromMainHigh_MQ:
   342                           	opt stack 0
   343  000400                     	ds	138
   344                           tblptru	equ	0xFF8
   345                           tblptrh	equ	0xFF7
   346                           tblptrl	equ	0xFF6
   347                           tablat	equ	0xFF5
   348                           postinc0	equ	0xFEE
   349                           wreg	equ	0xFE8
   350                           
   351                           	psect	cstackBANK2
   352  00028A                     __pcstackBANK2:
   353                           	opt stack 0
   354  00028A                     main@sensor_data:
   355                           	opt stack 0
   356                           
   357                           ; 14 bytes @ 0x0
   358  00028A                     	ds	14
   359  000298                     main@last_reg_recvd:
   360                           	opt stack 0
   361                           
   362                           ; 1 bytes @ 0xE
   363  000298                     	ds	1
   364  000299                     main@myByte1:
   365                           	opt stack 0
   366                           
   367                           ; 1 bytes @ 0xF
   368  000299                     	ds	1
   369  00029A                     main@myByte2:
   370                           	opt stack 0
   371                           
   372                           ; 1 bytes @ 0x10
   373  00029A                     	ds	1
   374  00029B                     main@t0thread_data:
   375                           	opt stack 0
   376                           
   377                           ; 2 bytes @ 0x11
   378  00029B                     	ds	2
   379  00029D                     main@uart_response:
   380                           	opt stack 0
   381                           
   382                           ; 14 bytes @ 0x13
   383  00029D                     	ds	14
   384  0002AB                     main@msgbuffer:
   385                           	opt stack 0
   386                           
   387                           ; 15 bytes @ 0x21
   388  0002AB                     	ds	15
   389  0002BA                     main@jjj:
   390                           	opt stack 0
   391                           
   392                           ; 2 bytes @ 0x30
   393  0002BA                     	ds	2
   394  0002BC                     main@i:
   395                           	opt stack 0
   396                           
   397                           ; 1 bytes @ 0x32
   398  0002BC                     	ds	1
   399  0002BD                     main@length:
   400                           	opt stack 0
   401                           
   402                           ; 1 bytes @ 0x33
   403  0002BD                     	ds	1
   404  0002BE                     main@msgtype:
   405                           	opt stack 0
   406                           
   407                           ; 1 bytes @ 0x34
   408  0002BE                     	ds	1
   409  0002BF                     main@z:
   410                           	opt stack 0
   411                           
   412                           ; 1 bytes @ 0x35
   413  0002BF                     	ds	1
   414  0002C0                     main@t1thread_data:
   415                           	opt stack 0
   416                           
   417                           ; 17 bytes @ 0x36
   418  0002C0                     	ds	17
   419  0002D1                     main@ic:
   420                           	opt stack 0
   421                           
   422                           ; 38 bytes @ 0x47
   423  0002D1                     	ds	38
   424                           tblptru	equ	0xFF8
   425                           tblptrh	equ	0xFF7
   426                           tblptrl	equ	0xFF6
   427                           tablat	equ	0xFF5
   428                           postinc0	equ	0xFEE
   429                           wreg	equ	0xFE8
   430                           
   431                           	psect	cstackBANK1
   432  00018A                     __pcstackBANK1:
   433                           	opt stack 0
   434  00018A                     recv_msg@slot:
   435                           	opt stack 0
   436  00018A                     send_msg@tlength:
   437                           	opt stack 0
   438                           
   439                           ; 2 bytes @ 0x0
   440  00018A                     	ds	1
   441  00018B                     recv_msg@tlength:
   442                           	opt stack 0
   443                           
   444                           ; 2 bytes @ 0x1
   445  00018B                     	ds	1
   446  00018C                     send_msg@slot:
   447                           	opt stack 0
   448                           
   449                           ; 1 bytes @ 0x2
   450  00018C                     	ds	1
   451  00018D                     send_msg@qmsg:
   452                           	opt stack 0
   453  00018D                     recv_msg@qmsg:
   454                           	opt stack 0
   455                           
   456                           ; 2 bytes @ 0x3
   457  00018D                     	ds	2
   458  00018F                     FromMainLow_sendmsg@length:
   459                           	opt stack 0
   460  00018F                     FromMainHigh_sendmsg@length:
   461                           	opt stack 0
   462  00018F                     ToMainLow_recvmsg@msgtype:
   463                           	opt stack 0
   464  00018F                     ToMainHigh_recvmsg@msgtype:
   465                           	opt stack 0
   466                           
   467                           ; 2 bytes @ 0x5
   468  00018F                     	ds	1
   469  000190                     i2c_master_send@msg:
   470                           	opt stack 0
   471  000190                     send_uart_message@message_ptr:
   472                           	opt stack 0
   473                           
   474                           ; 2 bytes @ 0x6
   475  000190                     	ds	1
   476  000191                     ToMainLow_recvmsg@data:
   477                           	opt stack 0
   478  000191                     ToMainHigh_recvmsg@data:
   479                           	opt stack 0
   480                           
   481                           ; 2 bytes @ 0x7
   482  000191                     	ds	1
   483  000192                     ??_i2c_master_send:
   484  000192                     send_uart_message@message_q_code:
   485                           	opt stack 0
   486                           
   487                           ; 1 bytes @ 0x8
   488  000192                     	ds	1
   489  000193                     i2c_master_send@length:
   490                           	opt stack 0
   491                           
   492                           ; 1 bytes @ 0x9
   493  000193                     	ds	1
   494  000194                     timer1_lthread@tptr:
   495                           	opt stack 0
   496                           
   497                           ; 2 bytes @ 0xA
   498  000194                     	ds	2
   499  000196                     timer1_lthread@msgtype:
   500                           	opt stack 0
   501                           
   502                           ; 2 bytes @ 0xC
   503  000196                     	ds	2
   504  000198                     timer1_lthread@length:
   505                           	opt stack 0
   506                           
   507                           ; 2 bytes @ 0xE
   508  000198                     	ds	2
   509  00019A                     timer1_lthread@msgbuffer:
   510                           	opt stack 0
   511                           
   512                           ; 2 bytes @ 0x10
   513  00019A                     	ds	2
   514  00019C                     timer1_lthread@i2c_msg:
   515                           	opt stack 0
   516                           
   517                           ; 14 bytes @ 0x12
   518  00019C                     	ds	14
   519  0001AA                     timer1_lthread@retval:
   520                           	opt stack 0
   521                           
   522                           ; 1 bytes @ 0x20
   523  0001AA                     	ds	1
   524                           tblptru	equ	0xFF8
   525                           tblptrh	equ	0xFF7
   526                           tblptrl	equ	0xFF6
   527                           tablat	equ	0xFF5
   528                           postinc0	equ	0xFEE
   529                           wreg	equ	0xFE8
   530                           
   531                           	psect	cstackBANK0
   532  000060                     __pcstackBANK0:
   533                           	opt stack 0
   534  000060                     ?i2_in_high_int:
   535                           	opt stack 0
   536  000060                     WriteTimer0@timer0:
   537                           	opt stack 0
   538  000060                     i2check_msg@qptr:
   539                           	opt stack 0
   540  000060                     i2memcpy@d1:
   541                           	opt stack 0
   542                           
   543                           ; 2 bytes @ 0x0
   544  000060                     	ds	2
   545  000062                     ??i2_check_msg:
   546  000062                     ?i2_in_low_int:
   547                           	opt stack 0
   548  000062                     WriteTimer0@timer:
   549                           	opt stack 0
   550  000062                     i2memcpy@s1:
   551                           	opt stack 0
   552                           
   553                           ; 2 bytes @ 0x2
   554  000062                     	ds	2
   555  000064                     i2memcpy@n:
   556                           	opt stack 0
   557                           
   558                           ; 2 bytes @ 0x4
   559  000064                     	ds	2
   560  000066                     i2memcpy@d:
   561                           	opt stack 0
   562                           
   563                           ; 2 bytes @ 0x6
   564  000066                     	ds	2
   565  000068                     i2memcpy@s:
   566                           	opt stack 0
   567                           
   568                           ; 2 bytes @ 0x8
   569  000068                     	ds	2
   570  00006A                     i2send_msg@qptr:
   571                           	opt stack 0
   572  00006A                     i2recv_msg@qptr:
   573                           	opt stack 0
   574                           
   575                           ; 2 bytes @ 0xA
   576  00006A                     	ds	2
   577  00006C                     i2send_msg@length:
   578                           	opt stack 0
   579  00006C                     i2recv_msg@maxlength:
   580                           	opt stack 0
   581                           
   582                           ; 1 bytes @ 0xC
   583  00006C                     	ds	1
   584  00006D                     i2send_msg@msgtype:
   585                           	opt stack 0
   586  00006D                     i2recv_msg@msgtype:
   587                           	opt stack 0
   588                           
   589                           ; 2 bytes @ 0xD
   590  00006D                     	ds	1
   591  00006E                     i2send_msg@data:
   592                           	opt stack 0
   593                           
   594                           ; 2 bytes @ 0xE
   595  00006E                     	ds	1
   596  00006F                     i2recv_msg@data:
   597                           	opt stack 0
   598                           
   599                           ; 2 bytes @ 0xF
   600  00006F                     	ds	1
   601  000070                     ??i2_send_msg:
   602                           
   603                           ; 0 bytes @ 0x10
   604  000070                     	ds	1
   605  000071                     ??i2_recv_msg:
   606  000071                     i2send_msg@tlength:
   607                           	opt stack 0
   608                           
   609                           ; 2 bytes @ 0x11
   610  000071                     	ds	2
   611  000073                     i2send_msg@slot:
   612                           	opt stack 0
   613  000073                     i2recv_msg@slot:
   614                           	opt stack 0
   615                           
   616                           ; 1 bytes @ 0x13
   617  000073                     	ds	1
   618  000074                     i2send_msg@qmsg:
   619                           	opt stack 0
   620  000074                     i2recv_msg@tlength:
   621                           	opt stack 0
   622                           
   623                           ; 2 bytes @ 0x14
   624  000074                     	ds	2
   625  000076                     ToMainHigh_sendmsg@msgtype:
   626                           	opt stack 0
   627  000076                     i2recv_msg@qmsg:
   628                           	opt stack 0
   629                           
   630                           ; 2 bytes @ 0x16
   631  000076                     	ds	1
   632  000077                     ToMainHigh_sendmsg@data:
   633                           	opt stack 0
   634                           
   635                           ; 2 bytes @ 0x17
   636  000077                     	ds	1
   637  000078                     FromMainHigh_recvmsg@msgtype:
   638                           	opt stack 0
   639                           
   640                           ; 2 bytes @ 0x18
   641  000078                     	ds	1
   642  000079                     ToMainHigh_sendmsg@length:
   643                           	opt stack 0
   644                           
   645                           ; 1 bytes @ 0x19
   646  000079                     	ds	1
   647  00007A                     FromMainHigh_recvmsg@data:
   648                           	opt stack 0
   649                           
   650                           ; 2 bytes @ 0x1A
   651  00007A                     	ds	2
   652  00007C                     FromMainHigh_recvmsg@maxlength:
   653                           	opt stack 0
   654                           
   655                           ; 1 bytes @ 0x1C
   656  00007C                     	ds	1
   657  00007D                     ??_i2c_int_handler:
   658  00007D                     timer0_int_handler@length:
   659                           	opt stack 0
   660                           
   661                           ; 2 bytes @ 0x1D
   662  00007D                     	ds	1
   663  00007E                     i2c_int_handler@err:
   664                           	opt stack 0
   665                           
   666                           ; 1 bytes @ 0x1E
   667  00007E                     	ds	1
   668  00007F                     i2c_int_handler@err_2152:
   669                           	opt stack 0
   670  00007F                     timer0_int_handler@msgtype:
   671                           	opt stack 0
   672                           
   673                           ; 2 bytes @ 0x1F
   674  00007F                     	ds	1
   675  000080                     i2c_int_handler@command_byte:
   676                           	opt stack 0
   677                           
   678                           ; 1 bytes @ 0x20
   679  000080                     	ds	1
   680  000081                     i2c_int_handler@read_bit:
   681                           	opt stack 0
   682  000081                     timer0_int_handler@val:
   683                           	opt stack 0
   684                           
   685                           ; 2 bytes @ 0x21
   686  000081                     	ds	1
   687  000082                     i2c_int_handler@msg_to_send:
   688                           	opt stack 0
   689                           
   690                           ; 1 bytes @ 0x22
   691  000082                     	ds	1
   692  000083                     i2c_int_handler@len:
   693                           	opt stack 0
   694                           
   695                           ; 1 bytes @ 0x23
   696  000083                     	ds	1
   697  000084                     ??_InterruptHandlerHigh:
   698                           
   699                           ; 0 bytes @ 0x24
   700  000084                     	ds	14
   701  000092                     ?_in_high_int:
   702                           	opt stack 0
   703  000092                     ?___lwmod:
   704                           	opt stack 0
   705  000092                     i2c_configure_master@slave_addr:
   706                           	opt stack 0
   707  000092                     OpenTimer0@config:
   708                           	opt stack 0
   709  000092                     OpenTimer1@config1:
   710                           	opt stack 0
   711  000092                     Delay1KTCYx@unit:
   712                           	opt stack 0
   713  000092                     init_queue@qptr:
   714                           	opt stack 0
   715  000092                     check_msg@qptr:
   716                           	opt stack 0
   717  000092                     init_i2c@ic:
   718                           	opt stack 0
   719  000092                     timer0_lthread@tptr:
   720                           	opt stack 0
   721  000092                     init_timer1_lthread@tptr:
   722                           	opt stack 0
   723  000092                     ___lwmod@dividend:
   724                           	opt stack 0
   725  000092                     memcpy@d1:
   726                           	opt stack 0
   727                           
   728                           ; 2 bytes @ 0x32
   729  000092                     	ds	1
   730  000093                     ??_OpenTimer1:
   731                           
   732                           ; 0 bytes @ 0x33
   733  000093                     	ds	1
   734  000094                     ??_check_msg:
   735  000094                     ?_in_low_int:
   736                           	opt stack 0
   737  000094                     init_queue@i:
   738                           	opt stack 0
   739  000094                     OpenTimer1@config:
   740                           	opt stack 0
   741  000094                     timer0_lthread@msgtype:
   742                           	opt stack 0
   743  000094                     ___lwmod@divisor:
   744                           	opt stack 0
   745  000094                     memcpy@s1:
   746                           	opt stack 0
   747                           
   748                           ; 2 bytes @ 0x34
   749  000094                     	ds	1
   750  000095                     
   751                           ; 0 bytes @ 0x35
   752  000095                     	ds	1
   753  000096                     ?_in_main:
   754                           	opt stack 0
   755  000096                     ___lwmod@counter:
   756                           	opt stack 0
   757  000096                     timer0_lthread@length:
   758                           	opt stack 0
   759  000096                     memcpy@n:
   760                           	opt stack 0
   761                           
   762                           ; 2 bytes @ 0x36
   763  000096                     	ds	2
   764  000098                     timer0_lthread@msgbuffer:
   765                           	opt stack 0
   766  000098                     memcpy@d:
   767                           	opt stack 0
   768                           
   769                           ; 2 bytes @ 0x38
   770  000098                     	ds	2
   771  00009A                     timer0_lthread@msgval:
   772                           	opt stack 0
   773  00009A                     memcpy@s:
   774                           	opt stack 0
   775                           
   776                           ; 2 bytes @ 0x3A
   777  00009A                     	ds	2
   778  00009C                     send_msg@qptr:
   779                           	opt stack 0
   780  00009C                     recv_msg@qptr:
   781                           	opt stack 0
   782                           
   783                           ; 2 bytes @ 0x3C
   784  00009C                     	ds	2
   785  00009E                     send_msg@length:
   786                           	opt stack 0
   787  00009E                     recv_msg@maxlength:
   788                           	opt stack 0
   789                           
   790                           ; 1 bytes @ 0x3E
   791  00009E                     	ds	1
   792  00009F                     send_msg@msgtype:
   793                           	opt stack 0
   794  00009F                     recv_msg@msgtype:
   795                           	opt stack 0
   796                           
   797                           ; 2 bytes @ 0x3F
   798  00009F                     	ds	1
   799  0000A0                     send_msg@data:
   800                           	opt stack 0
   801                           
   802                           ; 2 bytes @ 0x40
   803  0000A0                     	ds	1
   804  0000A1                     recv_msg@data:
   805                           	opt stack 0
   806                           
   807                           ; 2 bytes @ 0x41
   808  0000A1                     	ds	1
   809  0000A2                     ??_send_msg:
   810                           
   811                           ; 0 bytes @ 0x42
   812  0000A2                     	ds	1
   813  0000A3                     ??_recv_msg:
   814  0000A3                     FromMainLow_sendmsg@msgtype:
   815                           	opt stack 0
   816  0000A3                     FromMainHigh_sendmsg@msgtype:
   817                           	opt stack 0
   818                           
   819                           ; 1 bytes @ 0x43
   820  0000A3                     	ds	1
   821  0000A4                     FromMainLow_sendmsg@data:
   822                           	opt stack 0
   823  0000A4                     FromMainHigh_sendmsg@data:
   824                           	opt stack 0
   825                           
   826                           ; 2 bytes @ 0x44
   827  0000A4                     	ds	1
   828  0000A5                     ToMainLow_recvmsg@maxlength:
   829                           	opt stack 0
   830  0000A5                     ToMainHigh_recvmsg@maxlength:
   831                           	opt stack 0
   832                           
   833                           ; 1 bytes @ 0x45
   834  0000A5                     	ds	1
   835  0000A6                     tblptru	equ	0xFF8
   836                           tblptrh	equ	0xFF7
   837                           tblptrl	equ	0xFF6
   838                           tablat	equ	0xFF5
   839                           postinc0	equ	0xFEE
   840                           wreg	equ	0xFE8
   841                           
   842                           ; 0 bytes @ 0x46
   843                           
   844                           	psect	cstackCOMRAM
   845  000001                     __pcstackCOMRAM:
   846                           	opt stack 0
   847  000001                     ?_ReadTimer1:
   848                           	opt stack 0
   849  000001                     uart_frame_message@inner:
   850                           	opt stack 0
   851  000001                     WriteTimer1@timer1:
   852                           	opt stack 0
   853  000001                     i1memcpy@d1:
   854                           	opt stack 0
   855                           
   856                           ; 2 bytes @ 0x0
   857  000001                     	ds	2
   858  000003                     uart_frame_message@outer:
   859                           	opt stack 0
   860  000003                     ReadTimer1@timer:
   861                           	opt stack 0
   862  000003                     WriteTimer1@timer:
   863                           	opt stack 0
   864  000003                     i1memcpy@s1:
   865                           	opt stack 0
   866                           
   867                           ; 2 bytes @ 0x2
   868  000003                     	ds	2
   869  000005                     ??_uart_frame_message:
   870  000005                     i1memcpy@n:
   871                           	opt stack 0
   872                           
   873                           ; 2 bytes @ 0x4
   874  000005                     	ds	2
   875  000007                     uart_frame_message@checksum:
   876                           	opt stack 0
   877  000007                     i1memcpy@d:
   878                           	opt stack 0
   879                           
   880                           ; 2 bytes @ 0x6
   881  000007                     	ds	1
   882  000008                     uart_frame_message@i:
   883                           	opt stack 0
   884                           
   885                           ; 1 bytes @ 0x7
   886  000008                     	ds	1
   887  000009                     i1memcpy@s:
   888                           	opt stack 0
   889                           
   890                           ; 2 bytes @ 0x8
   891  000009                     	ds	2
   892  00000B                     i1send_msg@qptr:
   893                           	opt stack 0
   894  00000B                     i1recv_msg@qptr:
   895                           	opt stack 0
   896                           
   897                           ; 2 bytes @ 0xA
   898  00000B                     	ds	2
   899  00000D                     i1send_msg@length:
   900                           	opt stack 0
   901  00000D                     i1recv_msg@maxlength:
   902                           	opt stack 0
   903                           
   904                           ; 1 bytes @ 0xC
   905  00000D                     	ds	1
   906  00000E                     i1send_msg@msgtype:
   907                           	opt stack 0
   908  00000E                     i1recv_msg@msgtype:
   909                           	opt stack 0
   910                           
   911                           ; 2 bytes @ 0xD
   912  00000E                     	ds	1
   913  00000F                     i1send_msg@data:
   914                           	opt stack 0
   915                           
   916                           ; 2 bytes @ 0xE
   917  00000F                     	ds	1
   918  000010                     i1recv_msg@data:
   919                           	opt stack 0
   920                           
   921                           ; 2 bytes @ 0xF
   922  000010                     	ds	1
   923  000011                     ??i1_send_msg:
   924                           
   925                           ; 0 bytes @ 0x10
   926  000011                     	ds	1
   927  000012                     ??i1_recv_msg:
   928  000012                     i1send_msg@tlength:
   929                           	opt stack 0
   930                           
   931                           ; 2 bytes @ 0x11
   932  000012                     	ds	2
   933  000014                     i1send_msg@slot:
   934                           	opt stack 0
   935  000014                     i1recv_msg@slot:
   936                           	opt stack 0
   937                           
   938                           ; 1 bytes @ 0x13
   939  000014                     	ds	1
   940  000015                     i1send_msg@qmsg:
   941                           	opt stack 0
   942  000015                     i1recv_msg@tlength:
   943                           	opt stack 0
   944                           
   945                           ; 2 bytes @ 0x14
   946  000015                     	ds	2
   947  000017                     ToMainLow_sendmsg@msgtype:
   948                           	opt stack 0
   949  000017                     i1recv_msg@qmsg:
   950                           	opt stack 0
   951                           
   952                           ; 2 bytes @ 0x16
   953  000017                     	ds	1
   954  000018                     ToMainLow_sendmsg@data:
   955                           	opt stack 0
   956                           
   957                           ; 2 bytes @ 0x17
   958  000018                     	ds	1
   959  000019                     FromMainLow_recvmsg@msgtype:
   960                           	opt stack 0
   961                           
   962                           ; 2 bytes @ 0x18
   963  000019                     	ds	1
   964  00001A                     ToMainLow_sendmsg@length:
   965                           	opt stack 0
   966                           
   967                           ; 1 bytes @ 0x19
   968  00001A                     	ds	1
   969  00001B                     ??_uart_receive_interrupt_handler:
   970  00001B                     FromMainLow_recvmsg@data:
   971                           	opt stack 0
   972  00001B                     timer1_int_handler@result:
   973                           	opt stack 0
   974                           
   975                           ; 2 bytes @ 0x1A
   976  00001B                     	ds	2
   977  00001D                     FromMainLow_recvmsg@maxlength:
   978                           	opt stack 0
   979  00001D                     uart_receive_interrupt_handler@gooey_uart_center:
   980                           	opt stack 0
   981                           
   982                           ; 14 bytes @ 0x1C
   983  00001D                     	ds	1
   984  00001E                     uart_transmit_interrupt_handler@data:
   985                           	opt stack 0
   986                           
   987                           ; 14 bytes @ 0x1D
   988  00001E                     	ds	13
   989  00002B                     uart_receive_interrupt_handler@status:
   990                           	opt stack 0
   991                           
   992                           ; 1 bytes @ 0x2A
   993  00002B                     	ds	1
   994  00002C                     uart_receive_interrupt_handler@status_2584:
   995                           	opt stack 0
   996  00002C                     uart_transmit_interrupt_handler@msgtype:
   997                           	opt stack 0
   998                           
   999                           ; 1 bytes @ 0x2B
  1000  00002C                     	ds	1
  1001  00002D                     uart_transmit_interrupt_handler@message_status:
  1002                           	opt stack 0
  1003  00002D                     uart_receive_interrupt_handler@bad_checksum_message:
  1004                           	opt stack 0
  1005                           
  1006                           ; 3 bytes @ 0x2C
  1007  00002D                     	ds	3
  1008  000030                     uart_receive_interrupt_handler@bad_counter_id:
  1009                           	opt stack 0
  1010                           
  1011                           ; 2 bytes @ 0x2F
  1012  000030                     	ds	2
  1013  000032                     uart_receive_interrupt_handler@bad_start_id:
  1014                           	opt stack 0
  1015                           
  1016                           ; 1 bytes @ 0x31
  1017  000032                     	ds	1
  1018  000033                     uart_receive_interrupt_handler@bad_end_id:
  1019                           	opt stack 0
  1020                           
  1021                           ; 1 bytes @ 0x32
  1022  000033                     	ds	1
  1023  000034                     uart_receive_interrupt_handler@message_count:
  1024                           	opt stack 0
  1025                           
  1026                           ; 1 bytes @ 0x33
  1027  000034                     	ds	1
  1028  000035                     uart_receive_interrupt_handler@checksum:
  1029                           	opt stack 0
  1030                           
  1031                           ; 1 bytes @ 0x34
  1032  000035                     	ds	1
  1033  000036                     uart_receive_interrupt_handler@msg_id:
  1034                           	opt stack 0
  1035                           
  1036                           ; 1 bytes @ 0x35
  1037  000036                     	ds	1
  1038  000037                     uart_receive_interrupt_handler@i:
  1039                           	opt stack 0
  1040                           
  1041                           ; 2 bytes @ 0x36
  1042  000037                     	ds	2
  1043  000039                     ??_InterruptHandlerLow:
  1044                           
  1045                           ; 0 bytes @ 0x38
  1046  000039                     	ds	17
  1047                           tblptru	equ	0xFF8
  1048                           tblptrh	equ	0xFF7
  1049                           tblptrl	equ	0xFF6
  1050                           tablat	equ	0xFF5
  1051                           postinc0	equ	0xFEE
  1052                           wreg	equ	0xFE8
  1053                           
  1054 ;;
  1055 ;;Main: autosize = 0, tempsize = 0, incstack = 0, save=0
  1056 ;;
  1057 ;; *************** function _main *****************
  1058 ;; Defined at:
  1059 ;;		line 187 in file "../src/main.c"
  1060 ;; Parameters:    Size  Location     Type
  1061 ;;		None
  1062 ;; Auto vars:     Size  Location     Type
  1063 ;;  uart_respons   14   19[BANK2 ] unsigned char [14]
  1064 ;;  jjj             2   48[BANK2 ] int 
  1065 ;;  ic             38   71[BANK2 ] struct __i2c_comm
  1066 ;;  t1thread_dat   17   54[BANK2 ] struct __timer1_thread_s
  1067 ;;  msgbuffer      15   33[BANK2 ] unsigned char [15]
  1068 ;;  sensor_data    14    0[BANK2 ] unsigned char [14]
  1069 ;;  t0thread_dat    2   17[BANK2 ] struct __timer0_thread_s
  1070 ;;  uthread_data    2    0        struct __uart_thread_str
  1071 ;;  z               1   53[BANK2 ] unsigned char 
  1072 ;;  msgtype         1   52[BANK2 ] unsigned char 
  1073 ;;  length          1   51[BANK2 ] char 
  1074 ;;  i               1   50[BANK2 ] unsigned char 
  1075 ;;  myByte2         1   16[BANK2 ] unsigned char 
  1076 ;;  myByte1         1   15[BANK2 ] unsigned char 
  1077 ;;  last_reg_rec    1   14[BANK2 ] unsigned char 
  1078 ;;  c               1    0        unsigned char 
  1079 ;; Return value:  Size  Location     Type
  1080 ;;		None               void
  1081 ;; Registers used:
  1082 ;;		wreg, fsr1l, fsr1h, fsr2l, fsr2h, status,2, status,0, prodl, prodh, cstack
  1083 ;; Tracked objects:
  1084 ;;		On entry : 0/0
  1085 ;;		On exit  : 0/0
  1086 ;;		Unchanged: 0/0
  1087 ;; Data sizes:     COMRAM   BANK0   BANK1   BANK2   BANK3   BANK4   BANK5   BANK6   BANK7   BANK8   BANK9  BANK10  BANK1
      +1  BANK12  BANK13  BANK14
  1088 ;;      Params:         0       0       0       0       0       0       0       0       0       0       0       0       
      +0       0       0       0
  1089 ;;      Locals:         0       0       0     109       0       0       0       0       0       0       0       0       
      +0       0       0       0
  1090 ;;      Temps:          0       0       0       0       0       0       0       0       0       0       0       0       
      +0       0       0       0
  1091 ;;      Totals:         0       0       0     109       0       0       0       0       0       0       0       0       
      +0       0       0       0
  1092 ;;Total ram usage:      109 bytes
  1093 ;; Hardware stack levels required when called:   15
  1094 ;; This function calls:
  1095 ;;		_OpenTimer0
  1096 ;;		_OpenTimer1
  1097 ;;		_ToMainHigh_recvmsg
  1098 ;;		_ToMainLow_recvmsg
  1099 ;;		_blip
  1100 ;;		_blip1
  1101 ;;		_blip2
  1102 ;;		_blip3
  1103 ;;		_blip4
  1104 ;;		_block_on_To_msgqueues
  1105 ;;		_debug_configure
  1106 ;;		_enable_interrupts
  1107 ;;		_i2c_configure_master
  1108 ;;		_init_i2c
  1109 ;;		_init_queues
  1110 ;;		_init_timer1_lthread
  1111 ;;		_send_uart_message
  1112 ;;		_timer0_lthread
  1113 ;;		_timer1_lthread
  1114 ;;		_uart_configure
  1115 ;; This function is called by:
  1116 ;;		Startup code after reset
  1117 ;; This function uses a non-reentrant model
  1118 ;;
  1119                           
  1120                           	psect	text0
  1121  0004D4                     __ptext0:
  1122                           	opt stack 0
  1123  0004D4                     _main:
  1124                           	opt stack 16
  1125                           
  1126                           ;main.c: 188: char c;
  1127                           ;main.c: 189: signed char length;
  1128                           ;main.c: 190: unsigned char msgtype;
  1129                           ;main.c: 191: unsigned char last_reg_recvd;
  1130                           ;main.c: 192: i2c_comm ic;
  1131                           ;main.c: 193: unsigned char msgbuffer[14 + 1];
  1132                           ;main.c: 194: unsigned char i;
  1133                           ;main.c: 195: uart_thread_struct uthread_data;
  1134                           ;main.c: 196: timer1_thread_struct t1thread_data;
  1135                           ;main.c: 197: timer0_thread_struct t0thread_data;
  1136                           ;main.c: 199: t1thread_data.new_move_msg=0;
  1137                           
  1138                           ;incstack = 0
  1139  0004D4  0E00               	movlw	0
  1140  0004D6  0102               	movlb	2	; () banked
  1141  0004D8  6FCE               	movwf	(main@t1thread_data+14)& (0+255),b
  1142                           
  1143                           ;main.c: 215: OSCCON = 0xE0;
  1144  0004DA  0EE0               	movlw	224
  1145  0004DC  6ED3               	movwf	4051,c	;volatile
  1146                           
  1147                           ; BSR set to: 2
  1148                           ;main.c: 223: OSCTUNEbits.PLLEN = 1;
  1149  0004DE  8C9B               	bsf	3995,6,c	;volatile
  1150                           
  1151                           ; BSR set to: 2
  1152                           ;main.c: 238: init_i2c(&ic);
  1153  0004E0  0102               	movlb	2	; () banked
  1154  0004E2  0E02               	movlw	high main@ic
  1155  0004E4  0100               	movlb	0	; () banked
  1156  0004E6  6F93               	movwf	(init_i2c@ic+1)& (0+255),b
  1157  0004E8  0102               	movlb	2	; () banked
  1158  0004EA  0ED1               	movlw	low main@ic
  1159  0004EC  0100               	movlb	0	; () banked
  1160  0004EE  6F92               	movwf	init_i2c@ic& (0+255),b
  1161  0004F0  ECA7  F009         	call	_init_i2c	;wreg free
  1162                           
  1163                           ;main.c: 241: init_timer1_lthread(&t1thread_data);
  1164  0004F4  0102               	movlb	2	; () banked
  1165  0004F6  0E02               	movlw	high main@t1thread_data
  1166  0004F8  0100               	movlb	0	; () banked
  1167  0004FA  6F93               	movwf	(init_timer1_lthread@tptr+1)& (0+255),b
  1168  0004FC  0102               	movlb	2	; () banked
  1169  0004FE  0EC0               	movlw	low main@t1thread_data
  1170  000500  0100               	movlb	0	; () banked
  1171  000502  6F92               	movwf	init_timer1_lthread@tptr& (0+255),b
  1172  000504  ECB0  F00D         	call	_init_timer1_lthread	;wreg free
  1173                           
  1174                           ;main.c: 244: init_queues();
  1175  000508  EC41  F00B         	call	_init_queues	;wreg free
  1176                           
  1177                           ;main.c: 248: TRISB = 0x0;
  1178  00050C  0E00               	movlw	0
  1179  00050E  6E93               	movwf	3987,c	;volatile
  1180                           
  1181                           ;main.c: 249: LATB = 0x0;
  1182  000510  0E00               	movlw	0
  1183  000512  6E8A               	movwf	3978,c	;volatile
  1184                           
  1185                           ;main.c: 262: OpenTimer0(0b11111111 & 0b10111111 & 0b11011111 & 0b11110110);
  1186  000514  0E96               	movlw	150
  1187  000516  EC69  F00D         	call	_OpenTimer0
  1188                           
  1189                           ;main.c: 270: OpenTimer1(0b11111111 & 0b10011111 & 0b11111111 & 0b11111111 & 0b11111011 
      +                          & 0b11111111,0x0);
  1190  00051A  0E00               	movlw	0
  1191  00051C  0100               	movlb	0	; () banked
  1192  00051E  6F92               	movwf	OpenTimer1@config1& (0+255),b
  1193  000520  0E9B               	movlw	155
  1194  000522  EC77  F00C         	call	_OpenTimer1
  1195                           
  1196                           ;main.c: 292: IPR1bits.TMR1IP = 0;
  1197  000526  909F               	bcf	3999,0,c	;volatile
  1198                           
  1199                           ;main.c: 294: IPR2bits.TMR3IP = 0;
  1200  000528  92A2               	bcf	4002,1,c	;volatile
  1201                           
  1202                           ;main.c: 296: IPR1bits.RCIP = 0;
  1203  00052A  9A9F               	bcf	3999,5,c	;volatile
  1204                           
  1205                           ;main.c: 299: IPR1bits.SSPIP = 1;
  1206  00052C  869F               	bsf	3999,3,c	;volatile
  1207                           
  1208                           ;main.c: 309: i2c_configure_master(0x00);
  1209  00052E  0E00               	movlw	0
  1210  000530  ECE1  F00A         	call	_i2c_configure_master
  1211                           
  1212                           ;main.c: 320: PIE1bits.SSPIE = 1;
  1213  000534  869D               	bsf	3997,3,c	;volatile
  1214                           
  1215                           ;main.c: 346: debug_configure();
  1216  000536  ECFA  F00D         	call	_debug_configure	;wreg free
  1217                           
  1218                           ;main.c: 347: blip();
  1219  00053A  EC13  F00E         	call	_blip	;wreg free
  1220                           
  1221                           ;main.c: 348: blip1();
  1222  00053E  EC0F  F00E         	call	_blip1	;wreg free
  1223                           
  1224                           ;main.c: 349: blip2();
  1225  000542  EC0B  F00E         	call	_blip2	;wreg free
  1226                           
  1227                           ;main.c: 350: blip3();
  1228  000546  EC07  F00E         	call	_blip3	;wreg free
  1229                           
  1230                           ;main.c: 351: blip4();
  1231  00054A  EC03  F00E         	call	_blip4	;wreg free
  1232                           
  1233                           ;main.c: 361: enable_interrupts();
  1234  00054E  ECFF  F00D         	call	_enable_interrupts	;wreg free
  1235                           
  1236                           ;main.c: 371: uart_configure();
  1237  000552  ECA0  F00D         	call	_uart_configure	;wreg free
  1238                           
  1239                           ;main.c: 374: unsigned char sensor_data[14];
  1240                           ;main.c: 375: sensor_data[0] = 0x03;
  1241  000556  0E03               	movlw	3
  1242  000558  0102               	movlb	2	; () banked
  1243  00055A  6F8A               	movwf	main@sensor_data& (0+255),b
  1244                           
  1245                           ; BSR set to: 2
  1246                           ;main.c: 376: unsigned char z;
  1247                           ;main.c: 377: for(z=1;z<14;z++)
  1248  00055C  0E01               	movlw	1
  1249  00055E  0102               	movlb	2	; () banked
  1250  000560  6FBF               	movwf	main@z& (0+255),b
  1251  000562  D00F               	goto	L3
  1252  000564                     l4237:
  1253                           
  1254                           ; BSR set to: 2
  1255                           ;main.c: 378: {
  1256                           ;main.c: 379: sensor_data[z] = 0x00;
  1257  000564  0102               	movlb	2	; () banked
  1258  000566  51BF               	movf	main@z& (0+255),w,b
  1259  000568  0D01               	mullw	1
  1260  00056A  0102               	movlb	2	; () banked
  1261  00056C  0E8A               	movlw	low main@sensor_data
  1262  00056E  24F3               	addwf	prodl,w,c
  1263  000570  6ED9               	movwf	fsr2l,c
  1264  000572  0102               	movlb	2	; () banked
  1265  000574  0E02               	movlw	high main@sensor_data
  1266  000576  20F4               	addwfc	prodh,w,c
  1267  000578  6EDA               	movwf	fsr2h,c
  1268  00057A  0E00               	movlw	0
  1269  00057C  6EDF               	movwf	indf2,c
  1270                           
  1271                           ; BSR set to: 2
  1272  00057E  0102               	movlb	2	; () banked
  1273  000580  2BBF               	incf	main@z& (0+255),f,b
  1274  000582                     L3:
  1275                           
  1276                           ; BSR set to: 2
  1277  000582  0E0D               	movlw	13
  1278  000584  0102               	movlb	2	; () banked
  1279  000586  65BF               	cpfsgt	main@z& (0+255),b
  1280  000588  D7ED               	goto	l4237
  1281                           
  1282                           ; BSR set to: 2
  1283                           ;main.c: 380: }
  1284                           ;main.c: 383: unsigned char myByte1 = 0x54;
  1285                           
  1286                           ; BSR set to: 2
  1287  00058A  0E54               	movlw	84
  1288  00058C  0102               	movlb	2	; () banked
  1289  00058E  6F99               	movwf	main@myByte1& (0+255),b
  1290                           
  1291                           ;main.c: 384: unsigned char myByte2 = 0x45;
  1292  000590  0E45               	movlw	69
  1293  000592  0102               	movlb	2	; () banked
  1294  000594  6F9A               	movwf	main@myByte2& (0+255),b
  1295  000596                     l4245:
  1296                           
  1297                           ;main.c: 401: block_on_To_msgqueues();
  1298  000596  EC80  F00A         	call	_block_on_To_msgqueues	;wreg free
  1299                           
  1300                           ;main.c: 409: length = ToMainHigh_recvmsg(14, &msgtype, (void *) msgbuffer);
  1301  00059A  0102               	movlb	2	; () banked
  1302  00059C  0E02               	movlw	high main@msgtype
  1303  00059E  0101               	movlb	1	; () banked
  1304  0005A0  6F90               	movwf	(ToMainHigh_recvmsg@msgtype+1)& (0+255),b
  1305  0005A2  0102               	movlb	2	; () banked
  1306  0005A4  0EBE               	movlw	low main@msgtype
  1307  0005A6  0101               	movlb	1	; () banked
  1308  0005A8  6F8F               	movwf	ToMainHigh_recvmsg@msgtype& (0+255),b
  1309  0005AA  0102               	movlb	2	; () banked
  1310  0005AC  0E02               	movlw	high main@msgbuffer
  1311  0005AE  0101               	movlb	1	; () banked
  1312  0005B0  6F92               	movwf	(ToMainHigh_recvmsg@data+1)& (0+255),b
  1313  0005B2  0102               	movlb	2	; () banked
  1314  0005B4  0EAB               	movlw	low main@msgbuffer
  1315  0005B6  0101               	movlb	1	; () banked
  1316  0005B8  6F91               	movwf	ToMainHigh_recvmsg@data& (0+255),b
  1317  0005BA  0E0E               	movlw	14
  1318  0005BC  EC1B  F00C         	call	_ToMainHigh_recvmsg
  1319  0005C0  0102               	movlb	2	; () banked
  1320  0005C2  6FBD               	movwf	main@length& (0+255),b
  1321                           
  1322                           ; BSR set to: 2
  1323                           ;main.c: 410: if (length < 0) {
  1324  0005C4  0102               	movlb	2	; () banked
  1325  0005C6  BFBD               	btfsc	main@length& (0+255),7,b
  1326  0005C8  D06C               	goto	l4277
  1327  0005CA  D05F               	goto	l4275
  1328  0005CC                     l4253:
  1329                           
  1330                           ; BSR set to: 2
  1331                           ;main.c: 420: {
  1332                           ;main.c: 421: timer0_lthread(&t0thread_data, msgtype, length, msgbuffer);
  1333  0005CC  0102               	movlb	2	; () banked
  1334  0005CE  0E02               	movlw	high main@t0thread_data
  1335  0005D0  0100               	movlb	0	; () banked
  1336  0005D2  6F93               	movwf	(timer0_lthread@tptr+1)& (0+255),b
  1337  0005D4  0102               	movlb	2	; () banked
  1338  0005D6  0E9B               	movlw	low main@t0thread_data
  1339  0005D8  0100               	movlb	0	; () banked
  1340  0005DA  6F92               	movwf	timer0_lthread@tptr& (0+255),b
  1341  0005DC  0102               	movlb	2	; () banked
  1342  0005DE  0100               	movlb	0	; () banked
  1343  0005E0  C2BE  F094         	movff	main@msgtype,timer0_lthread@msgtype
  1344  0005E4  0100               	movlb	0	; () banked
  1345  0005E6  6B95               	clrf	(timer0_lthread@msgtype+1)& (0+255),b
  1346  0005E8  0102               	movlb	2	; () banked
  1347  0005EA  51BD               	movf	main@length& (0+255),w,b
  1348  0005EC  0100               	movlb	0	; () banked
  1349  0005EE  6F96               	movwf	timer0_lthread@length& (0+255),b
  1350  0005F0  0100               	movlb	0	; () banked
  1351  0005F2  6B97               	clrf	(timer0_lthread@length+1)& (0+255),b
  1352  0005F4  0100               	movlb	0	; () banked
  1353  0005F6  BF96               	btfsc	timer0_lthread@length& (0+255),7,b
  1354  0005F8  0797               	decf	(timer0_lthread@length+1)& (0+255),f,b
  1355  0005FA  0102               	movlb	2	; () banked
  1356  0005FC  0E02               	movlw	high main@msgbuffer
  1357  0005FE  0100               	movlb	0	; () banked
  1358  000600  6F99               	movwf	(timer0_lthread@msgbuffer+1)& (0+255),b
  1359  000602  0102               	movlb	2	; () banked
  1360  000604  0EAB               	movlw	low main@msgbuffer
  1361  000606  0100               	movlb	0	; () banked
  1362  000608  6F98               	movwf	timer0_lthread@msgbuffer& (0+255),b
  1363  00060A  ECF3  F00D         	call	_timer0_lthread	;wreg free
  1364                           
  1365                           ;main.c: 422: break;
  1366  00060E  D049               	goto	l4277
  1367  000610                     l4255:
  1368                           
  1369                           ;main.c: 430: {
  1370                           ;main.c: 431: for(z=1;z<14-2;z++)
  1371  000610  0E01               	movlw	1
  1372  000612  0102               	movlb	2	; () banked
  1373  000614  6FBF               	movwf	main@z& (0+255),b
  1374  000616  D01A               	goto	L4
  1375  000618                     l4261:
  1376                           
  1377                           ; BSR set to: 2
  1378                           ;main.c: 432: {
  1379                           ;main.c: 433: sensor_data[z] = msgbuffer[z];
  1380  000618  0102               	movlb	2	; () banked
  1381  00061A  51BF               	movf	main@z& (0+255),w,b
  1382  00061C  0D01               	mullw	1
  1383  00061E  0102               	movlb	2	; () banked
  1384  000620  0EAB               	movlw	low main@msgbuffer
  1385  000622  24F3               	addwf	prodl,w,c
  1386  000624  6ED9               	movwf	fsr2l,c
  1387  000626  0102               	movlb	2	; () banked
  1388  000628  0E02               	movlw	high main@msgbuffer
  1389  00062A  20F4               	addwfc	prodh,w,c
  1390  00062C  6EDA               	movwf	fsr2h,c
  1391  00062E  0102               	movlb	2	; () banked
  1392  000630  51BF               	movf	main@z& (0+255),w,b
  1393  000632  0D01               	mullw	1
  1394  000634  0102               	movlb	2	; () banked
  1395  000636  0E8A               	movlw	low main@sensor_data
  1396  000638  24F3               	addwf	prodl,w,c
  1397  00063A  6EE1               	movwf	fsr1l,c
  1398  00063C  0102               	movlb	2	; () banked
  1399  00063E  0E02               	movlw	high main@sensor_data
  1400  000640  20F4               	addwfc	prodh,w,c
  1401  000642  6EE2               	movwf	fsr1h,c
  1402  000644  CFDF FFE7          	movff	indf2,indf1
  1403                           
  1404                           ; BSR set to: 2
  1405  000648  0102               	movlb	2	; () banked
  1406  00064A  2BBF               	incf	main@z& (0+255),f,b
  1407  00064C                     L4:
  1408                           
  1409                           ; BSR set to: 2
  1410  00064C  0E0B               	movlw	11
  1411  00064E  0102               	movlb	2	; () banked
  1412  000650  65BF               	cpfsgt	main@z& (0+255),b
  1413  000652  D7E2               	goto	l4261
  1414  000654  D017               	goto	l133
  1415  000656                     l131:
  1416                           
  1417                           ; BSR set to: 2
  1418                           ;main.c: 440: {
  1419                           ;main.c: 441: sensor_data[14-2] = msgbuffer[14-2];
  1420  000656  C2B7  F296         	movff	main@msgbuffer+12,main@sensor_data+12
  1421                           
  1422                           ;main.c: 442: sensor_data[14-1] = msgbuffer[14-1];
  1423  00065A  C2B8  F297         	movff	main@msgbuffer+13,main@sensor_data+13
  1424                           
  1425                           ; BSR set to: 2
  1426                           ;main.c: 444: send_uart_message( sensor_data );
  1427  00065E  0102               	movlb	2	; () banked
  1428  000660  0E02               	movlw	high main@sensor_data
  1429  000662  0101               	movlb	1	; () banked
  1430  000664  6F91               	movwf	(send_uart_message@message_ptr+1)& (0+255),b
  1431  000666  0102               	movlb	2	; () banked
  1432  000668  0E8A               	movlw	low main@sensor_data
  1433  00066A  0101               	movlb	1	; () banked
  1434  00066C  6F90               	movwf	send_uart_message@message_ptr& (0+255),b
  1435  00066E  EC7C  F00D         	call	_send_uart_message	;wreg free
  1436                           
  1437                           ;main.c: 446: break;
  1438  000672  D008               	goto	l133
  1439  000674                     l4271:
  1440  000674  0102               	movlb	2	; () banked
  1441  000676  51AB               	movf	main@msgbuffer& (0+255),w,b
  1442                           
  1443                           ; Switch size 1, requested type "space"
  1444                           ; Number of cases is 2, Range of values is 5 to 7
  1445                           ; switch strategies available:
  1446                           ; Name         Instructions Cycles
  1447                           ; simple_byte            7     4 (average)
  1448                           ;	Chosen strategy is simple_byte
  1449  000678  0A05               	xorlw	5	; case 5
  1450  00067A  B4D8               	btfsc	status,2,c
  1451  00067C  D7C9               	goto	l4255
  1452  00067E  0A02               	xorlw	2	; case 7
  1453  000680  B4D8               	btfsc	status,2,c
  1454  000682  D7E9               	goto	l131
  1455  000684                     l133:
  1456                           
  1457                           ;main.c: 458: {
  1458                           ;main.c: 461: last_reg_recvd = msgbuffer[0];
  1459  000684  C2AB  F298         	movff	main@msgbuffer,main@last_reg_recvd
  1460                           
  1461                           ;main.c: 462: break;
  1462  000688  D00C               	goto	l4277
  1463  00068A                     l4275:
  1464  00068A  0102               	movlb	2	; () banked
  1465  00068C  51BE               	movf	main@msgtype& (0+255),w,b
  1466                           
  1467                           ; Switch size 1, requested type "space"
  1468                           ; Number of cases is 4, Range of values is 10 to 42
  1469                           ; switch strategies available:
  1470                           ; Name         Instructions Cycles
  1471                           ; simple_byte           13     7 (average)
  1472                           ;	Chosen strategy is simple_byte
  1473  00068E  0A0A               	xorlw	10	; case 10
  1474  000690  B4D8               	btfsc	status,2,c
  1475  000692  D79C               	goto	l4253
  1476  000694  0A22               	xorlw	34	; case 40
  1477  000696  B4D8               	btfsc	status,2,c
  1478  000698  D7ED               	goto	l4271
  1479  00069A  0A01               	xorlw	1	; case 41
  1480  00069C  B4D8               	btfsc	status,2,c
  1481  00069E  D7F2               	goto	l133
  1482  0006A0  0A03               	xorlw	3	; case 42
  1483  0006A2                     l4277:
  1484                           
  1485                           ;main.c: 483: }
  1486                           ;main.c: 488: length = ToMainLow_recvmsg(14, &msgtype, (void *) msgbuffer);
  1487  0006A2  0102               	movlb	2	; () banked
  1488  0006A4  0E02               	movlw	high main@msgtype
  1489  0006A6  0101               	movlb	1	; () banked
  1490  0006A8  6F90               	movwf	(ToMainLow_recvmsg@msgtype+1)& (0+255),b
  1491  0006AA  0102               	movlb	2	; () banked
  1492  0006AC  0EBE               	movlw	low main@msgtype
  1493  0006AE  0101               	movlb	1	; () banked
  1494  0006B0  6F8F               	movwf	ToMainLow_recvmsg@msgtype& (0+255),b
  1495  0006B2  0102               	movlb	2	; () banked
  1496  0006B4  0E02               	movlw	high main@msgbuffer
  1497  0006B6  0101               	movlb	1	; () banked
  1498  0006B8  6F92               	movwf	(ToMainLow_recvmsg@data+1)& (0+255),b
  1499  0006BA  0102               	movlb	2	; () banked
  1500  0006BC  0EAB               	movlw	low main@msgbuffer
  1501  0006BE  0101               	movlb	1	; () banked
  1502  0006C0  6F91               	movwf	ToMainLow_recvmsg@data& (0+255),b
  1503  0006C2  0E0E               	movlw	14
  1504  0006C4  ECFC  F00B         	call	_ToMainLow_recvmsg
  1505  0006C8  0102               	movlb	2	; () banked
  1506  0006CA  6FBD               	movwf	main@length& (0+255),b
  1507                           
  1508                           ; BSR set to: 2
  1509                           ;main.c: 489: if (length < 0) {
  1510  0006CC  0102               	movlb	2	; () banked
  1511  0006CE  BFBD               	btfsc	main@length& (0+255),7,b
  1512  0006D0  D762               	goto	l4245
  1513                           
  1514                           ; BSR set to: 2
  1515                           ;main.c: 495: else
  1516                           ;main.c: 496: {
  1517                           ;main.c: 497: unsigned char uart_response[14];
  1518                           ;main.c: 498: int jjj;
  1519                           ;main.c: 499: for(jjj=0;jjj<14;jjj++)
  1520                           
  1521                           ; BSR set to: 2
  1522                           
  1523                           ; BSR set to: 2
  1524                           ;main.c: 493: }
  1525                           ;main.c: 494: }
  1526                           
  1527                           ; BSR set to: 2
  1528  0006D2  0E00               	movlw	0
  1529  0006D4  0102               	movlb	2	; () banked
  1530  0006D6  6FBB               	movwf	(main@jjj+1)& (0+255),b
  1531  0006D8  0E00               	movlw	0
  1532  0006DA  0102               	movlb	2	; () banked
  1533  0006DC  6FBA               	movwf	main@jjj& (0+255),b
  1534  0006DE                     
  1535                           ; BSR set to: 2
  1536  0006DE  0102               	movlb	2	; () banked
  1537  0006E0  51BB               	movf	(main@jjj+1)& (0+255),w,b
  1538  0006E2  0A80               	xorlw	128
  1539  0006E4  0F80               	addlw	-128
  1540  0006E6  0E0E               	movlw	14
  1541  0006E8  B4D8               	btfsc	status,2,c
  1542  0006EA  5DBA               	subwf	main@jjj& (0+255),w,b
  1543  0006EC  B0D8               	btfsc	status,0,c
  1544  0006EE  D0BE               	goto	l4351
  1545                           
  1546                           ; BSR set to: 2
  1547                           ;main.c: 500: {
  1548                           ;main.c: 501: uart_response[jjj] = 0;
  1549                           
  1550                           ; BSR set to: 2
  1551                           
  1552                           ; BSR set to: 2
  1553  0006F0  0102               	movlb	2	; () banked
  1554  0006F2  0E9D               	movlw	low main@uart_response
  1555  0006F4  0102               	movlb	2	; () banked
  1556  0006F6  25BA               	addwf	main@jjj& (0+255),w,b
  1557  0006F8  6ED9               	movwf	fsr2l,c
  1558  0006FA  0102               	movlb	2	; () banked
  1559  0006FC  0E02               	movlw	high main@uart_response
  1560  0006FE  0102               	movlb	2	; () banked
  1561  000700  21BB               	addwfc	(main@jjj+1)& (0+255),w,b
  1562  000702  6EDA               	movwf	fsr2h,c
  1563  000704  0E00               	movlw	0
  1564  000706  6EDF               	movwf	indf2,c
  1565                           
  1566                           ; BSR set to: 2
  1567  000708  0102               	movlb	2	; () banked
  1568  00070A  4BBA               	infsnz	main@jjj& (0+255),f,b
  1569  00070C  2BBB               	incf	(main@jjj+1)& (0+255),f,b
  1570  00070E  D7E7               	goto	L2
  1571  000710                     l4295:
  1572                           
  1573                           ; BSR set to: 2
  1574                           ;main.c: 507: {
  1575                           ;main.c: 509: timer1_lthread(&t1thread_data, msgtype, length, msgbuffer);
  1576  000710  0102               	movlb	2	; () banked
  1577  000712  0E02               	movlw	high main@t1thread_data
  1578  000714  0101               	movlb	1	; () banked
  1579  000716  6F95               	movwf	(timer1_lthread@tptr+1)& (0+255),b
  1580  000718  0102               	movlb	2	; () banked
  1581  00071A  0EC0               	movlw	low main@t1thread_data
  1582  00071C  0101               	movlb	1	; () banked
  1583  00071E  6F94               	movwf	timer1_lthread@tptr& (0+255),b
  1584  000720  0102               	movlb	2	; () banked
  1585  000722  0101               	movlb	1	; () banked
  1586  000724  C2BE  F196         	movff	main@msgtype,timer1_lthread@msgtype
  1587  000728  0101               	movlb	1	; () banked
  1588  00072A  6B97               	clrf	(timer1_lthread@msgtype+1)& (0+255),b
  1589  00072C  0102               	movlb	2	; () banked
  1590  00072E  51BD               	movf	main@length& (0+255),w,b
  1591  000730  0101               	movlb	1	; () banked
  1592  000732  6F98               	movwf	timer1_lthread@length& (0+255),b
  1593  000734  0101               	movlb	1	; () banked
  1594  000736  6B99               	clrf	(timer1_lthread@length+1)& (0+255),b
  1595  000738  0101               	movlb	1	; () banked
  1596  00073A  BF98               	btfsc	timer1_lthread@length& (0+255),7,b
  1597  00073C  0799               	decf	(timer1_lthread@length+1)& (0+255),f,b
  1598  00073E  0102               	movlb	2	; () banked
  1599  000740  0E02               	movlw	high main@msgbuffer
  1600  000742  0101               	movlb	1	; () banked
  1601  000744  6F9B               	movwf	(timer1_lthread@msgbuffer+1)& (0+255),b
  1602  000746  0102               	movlb	2	; () banked
  1603  000748  0EAB               	movlw	low main@msgbuffer
  1604  00074A  0101               	movlb	1	; () banked
  1605  00074C  6F9A               	movwf	timer1_lthread@msgbuffer& (0+255),b
  1606  00074E  EC29  F005         	call	_timer1_lthread	;wreg free
  1607                           
  1608                           ;main.c: 510: break;
  1609  000752  D721               	goto	l4245
  1610  000754                     l4297:
  1611                           
  1612                           ;main.c: 515: {
  1613                           ;main.c: 516: uart_response[0] = 0xf1;
  1614  000754  0EF1               	movlw	241
  1615  000756  0102               	movlb	2	; () banked
  1616  000758  6F9D               	movwf	main@uart_response& (0+255),b
  1617                           
  1618                           ; BSR set to: 2
  1619                           ;main.c: 517: uart_response[1] = msgbuffer[0];
  1620  00075A  C2AB  F29E         	movff	main@msgbuffer,main@uart_response+1
  1621                           
  1622                           ; BSR set to: 2
  1623                           ;main.c: 518: send_uart_message( uart_response );
  1624  00075E  0102               	movlb	2	; () banked
  1625  000760  0E02               	movlw	high main@uart_response
  1626  000762  0101               	movlb	1	; () banked
  1627  000764  6F91               	movwf	(send_uart_message@message_ptr+1)& (0+255),b
  1628  000766  0102               	movlb	2	; () banked
  1629  000768  0E9D               	movlw	low main@uart_response
  1630  00076A  0101               	movlb	1	; () banked
  1631  00076C  6F90               	movwf	send_uart_message@message_ptr& (0+255),b
  1632  00076E  EC7C  F00D         	call	_send_uart_message	;wreg free
  1633                           
  1634                           ;main.c: 519: break;
  1635  000772  D711               	goto	l4245
  1636  000774                     l4303:
  1637                           
  1638                           ;main.c: 522: {
  1639                           ;main.c: 523: uart_response[0] = 0xf2;
  1640  000774  0EF2               	movlw	242
  1641  000776  0102               	movlb	2	; () banked
  1642  000778  6F9D               	movwf	main@uart_response& (0+255),b
  1643                           
  1644                           ; BSR set to: 2
  1645                           ;main.c: 524: uart_response[1] = msgbuffer[0];
  1646  00077A  C2AB  F29E         	movff	main@msgbuffer,main@uart_response+1
  1647                           
  1648                           ; BSR set to: 2
  1649                           ;main.c: 525: uart_response[2] = msgbuffer[1];
  1650  00077E  C2AC  F29F         	movff	main@msgbuffer+1,main@uart_response+2
  1651                           
  1652                           ; BSR set to: 2
  1653                           ;main.c: 526: send_uart_message( uart_response );
  1654  000782  0102               	movlb	2	; () banked
  1655  000784  0E02               	movlw	high main@uart_response
  1656  000786  0101               	movlb	1	; () banked
  1657  000788  6F91               	movwf	(send_uart_message@message_ptr+1)& (0+255),b
  1658  00078A  0102               	movlb	2	; () banked
  1659  00078C  0E9D               	movlw	low main@uart_response
  1660  00078E  0101               	movlb	1	; () banked
  1661  000790  6F90               	movwf	send_uart_message@message_ptr& (0+255),b
  1662  000792  EC7C  F00D         	call	_send_uart_message	;wreg free
  1663                           
  1664                           ;main.c: 527: break;
  1665  000796  D6FF               	goto	l4245
  1666  000798                     l4311:
  1667                           
  1668                           ;main.c: 530: {
  1669                           ;main.c: 531: uart_response[0] = 0xf3;
  1670  000798  0EF3               	movlw	243
  1671  00079A  0102               	movlb	2	; () banked
  1672  00079C  6F9D               	movwf	main@uart_response& (0+255),b
  1673                           
  1674                           ; BSR set to: 2
  1675                           ;main.c: 532: uart_response[1] = msgbuffer[0];
  1676  00079E  C2AB  F29E         	movff	main@msgbuffer,main@uart_response+1
  1677                           
  1678                           ; BSR set to: 2
  1679                           ;main.c: 533: send_uart_message( uart_response );
  1680  0007A2  0102               	movlb	2	; () banked
  1681  0007A4  0E02               	movlw	high main@uart_response
  1682  0007A6  0101               	movlb	1	; () banked
  1683  0007A8  6F91               	movwf	(send_uart_message@message_ptr+1)& (0+255),b
  1684  0007AA  0102               	movlb	2	; () banked
  1685  0007AC  0E9D               	movlw	low main@uart_response
  1686  0007AE  0101               	movlb	1	; () banked
  1687  0007B0  6F90               	movwf	send_uart_message@message_ptr& (0+255),b
  1688  0007B2  EC7C  F00D         	call	_send_uart_message	;wreg free
  1689                           
  1690                           ;main.c: 534: break;
  1691  0007B6  D6EF               	goto	l4245
  1692  0007B8                     l4317:
  1693                           
  1694                           ;main.c: 537: {
  1695                           ;main.c: 538: uart_response[0] = 0xf4;
  1696  0007B8  0EF4               	movlw	244
  1697  0007BA  0102               	movlb	2	; () banked
  1698  0007BC  6F9D               	movwf	main@uart_response& (0+255),b
  1699                           
  1700                           ; BSR set to: 2
  1701                           ;main.c: 539: uart_response[1] = msgbuffer[0];
  1702  0007BE  C2AB  F29E         	movff	main@msgbuffer,main@uart_response+1
  1703                           
  1704                           ; BSR set to: 2
  1705                           ;main.c: 540: send_uart_message( uart_response );
  1706  0007C2  0102               	movlb	2	; () banked
  1707  0007C4  0E02               	movlw	high main@uart_response
  1708  0007C6  0101               	movlb	1	; () banked
  1709  0007C8  6F91               	movwf	(send_uart_message@message_ptr+1)& (0+255),b
  1710  0007CA  0102               	movlb	2	; () banked
  1711  0007CC  0E9D               	movlw	low main@uart_response
  1712  0007CE  0101               	movlb	1	; () banked
  1713  0007D0  6F90               	movwf	send_uart_message@message_ptr& (0+255),b
  1714  0007D2  EC7C  F00D         	call	_send_uart_message	;wreg free
  1715                           
  1716                           ;main.c: 541: break;
  1717  0007D6  D6DF               	goto	l4245
  1718  0007D8                     l4323:
  1719                           
  1720                           ;main.c: 545: {
  1721                           ;main.c: 546: uart_response[0] = 0x11;
  1722  0007D8  0E11               	movlw	17
  1723  0007DA  0102               	movlb	2	; () banked
  1724  0007DC  6F9D               	movwf	main@uart_response& (0+255),b
  1725                           
  1726                           ; BSR set to: 2
  1727                           ;main.c: 547: uart_response[1] = msgbuffer[0];
  1728  0007DE  C2AB  F29E         	movff	main@msgbuffer,main@uart_response+1
  1729                           
  1730                           ; BSR set to: 2
  1731                           ;main.c: 548: send_uart_message( uart_response );
  1732  0007E2  0102               	movlb	2	; () banked
  1733  0007E4  0E02               	movlw	high main@uart_response
  1734  0007E6  0101               	movlb	1	; () banked
  1735  0007E8  6F91               	movwf	(send_uart_message@message_ptr+1)& (0+255),b
  1736  0007EA  0102               	movlb	2	; () banked
  1737  0007EC  0E9D               	movlw	low main@uart_response
  1738  0007EE  0101               	movlb	1	; () banked
  1739  0007F0  6F90               	movwf	send_uart_message@message_ptr& (0+255),b
  1740  0007F2  EC7C  F00D         	call	_send_uart_message	;wreg free
  1741                           
  1742                           ;main.c: 549: break;
  1743  0007F6  D6CF               	goto	l4245
  1744  0007F8                     l4329:
  1745                           
  1746                           ;main.c: 561: {
  1747                           ;main.c: 562: send_uart_message( sensor_data );
  1748  0007F8  0102               	movlb	2	; () banked
  1749  0007FA  0E02               	movlw	high main@sensor_data
  1750  0007FC  0101               	movlb	1	; () banked
  1751  0007FE  6F91               	movwf	(send_uart_message@message_ptr+1)& (0+255),b
  1752  000800  0102               	movlb	2	; () banked
  1753  000802  0E8A               	movlw	low main@sensor_data
  1754  000804  0101               	movlb	1	; () banked
  1755  000806  6F90               	movwf	send_uart_message@message_ptr& (0+255),b
  1756  000808  EC7C  F00D         	call	_send_uart_message	;wreg free
  1757                           
  1758                           ;main.c: 563: break;
  1759  00080C  D6C4               	goto	l4245
  1760  00080E                     l4331:
  1761                           
  1762                           ;main.c: 566: {
  1763                           ;main.c: 568: for(i=0;i<14;i++)
  1764  00080E  0E00               	movlw	0
  1765  000810  0102               	movlb	2	; () banked
  1766  000812  6FBC               	movwf	main@i& (0+255),b
  1767  000814  D01A               	goto	L5
  1768  000816                     l4337:
  1769                           
  1770                           ; BSR set to: 2
  1771                           ;main.c: 569: {
  1772                           ;main.c: 570: t1thread_data.move_msg[i] = msgbuffer[i];
  1773  000816  0102               	movlb	2	; () banked
  1774  000818  51BC               	movf	main@i& (0+255),w,b
  1775  00081A  0D01               	mullw	1
  1776  00081C  0102               	movlb	2	; () banked
  1777  00081E  0EAB               	movlw	low main@msgbuffer
  1778  000820  24F3               	addwf	prodl,w,c
  1779  000822  6ED9               	movwf	fsr2l,c
  1780  000824  0102               	movlb	2	; () banked
  1781  000826  0E02               	movlw	high main@msgbuffer
  1782  000828  20F4               	addwfc	prodh,w,c
  1783  00082A  6EDA               	movwf	fsr2h,c
  1784  00082C  0102               	movlb	2	; () banked
  1785  00082E  51BC               	movf	main@i& (0+255),w,b
  1786  000830  0D01               	mullw	1
  1787  000832  0102               	movlb	2	; () banked
  1788  000834  0EC0               	movlw	low main@t1thread_data
  1789  000836  24F3               	addwf	prodl,w,c
  1790  000838  6EE1               	movwf	fsr1l,c
  1791  00083A  0102               	movlb	2	; () banked
  1792  00083C  0E02               	movlw	high main@t1thread_data
  1793  00083E  20F4               	addwfc	prodh,w,c
  1794  000840  6EE2               	movwf	fsr1h,c
  1795  000842  CFDF FFE7          	movff	indf2,indf1
  1796                           
  1797                           ; BSR set to: 2
  1798  000846  0102               	movlb	2	; () banked
  1799  000848  2BBC               	incf	main@i& (0+255),f,b
  1800  00084A                     L5:
  1801                           
  1802                           ; BSR set to: 2
  1803  00084A  0E0D               	movlw	13
  1804  00084C  0102               	movlb	2	; () banked
  1805  00084E  65BC               	cpfsgt	main@i& (0+255),b
  1806  000850  D7E2               	goto	l4337
  1807                           
  1808                           ; BSR set to: 2
  1809                           ;main.c: 571: }
  1810                           ;main.c: 573: t1thread_data.new_move_msg = 1;
  1811                           
  1812                           ; BSR set to: 2
  1813  000852  0E01               	movlw	1
  1814  000854  0102               	movlb	2	; () banked
  1815  000856  6FCE               	movwf	(main@t1thread_data+14)& (0+255),b
  1816                           
  1817                           ;main.c: 575: break;
  1818  000858  D69E               	goto	l4245
  1819  00085A                     l4347:
  1820  00085A  0102               	movlb	2	; () banked
  1821  00085C  51AB               	movf	main@msgbuffer& (0+255),w,b
  1822                           
  1823                           ; Switch size 1, requested type "space"
  1824                           ; Number of cases is 2, Range of values is 1 to 2
  1825                           ; switch strategies available:
  1826                           ; Name         Instructions Cycles
  1827                           ; simple_byte            7     4 (average)
  1828                           ;	Chosen strategy is simple_byte
  1829  00085E  0A01               	xorlw	1	; case 1
  1830  000860  B4D8               	btfsc	status,2,c
  1831  000862  D7D5               	goto	l4331
  1832  000864  0A03               	xorlw	3	; case 2
  1833  000866  B4D8               	btfsc	status,2,c
  1834  000868  D7C7               	goto	l4329
  1835  00086A  D695               	goto	l4245
  1836  00086C                     l4351:
  1837                           
  1838                           ; BSR set to: 2
  1839  00086C  0102               	movlb	2	; () banked
  1840  00086E  51BE               	movf	main@msgtype& (0+255),w,b
  1841                           
  1842                           ; Switch size 1, requested type "space"
  1843                           ; Number of cases is 8, Range of values is 11 to 36
  1844                           ; switch strategies available:
  1845                           ; Name         Instructions Cycles
  1846                           ; simple_byte           25    13 (average)
  1847                           ;	Chosen strategy is simple_byte
  1848  000870  0A0B               	xorlw	11	; case 11
  1849  000872  B4D8               	btfsc	status,2,c
  1850  000874  D74D               	goto	l4295
  1851  000876  0A15               	xorlw	21	; case 30
  1852  000878  B4D8               	btfsc	status,2,c
  1853  00087A  D76C               	goto	l4297
  1854  00087C  0A01               	xorlw	1	; case 31
  1855  00087E  B4D8               	btfsc	status,2,c
  1856  000880  D7EC               	goto	l4347
  1857  000882  0A3F               	xorlw	63	; case 32
  1858  000884  B4D8               	btfsc	status,2,c
  1859  000886  D766               	goto	l4297
  1860  000888  0A01               	xorlw	1	; case 33
  1861  00088A  B4D8               	btfsc	status,2,c
  1862  00088C  D773               	goto	l4303
  1863  00088E  0A03               	xorlw	3	; case 34
  1864  000890  B4D8               	btfsc	status,2,c
  1865  000892  D782               	goto	l4311
  1866  000894  0A01               	xorlw	1	; case 35
  1867  000896  B4D8               	btfsc	status,2,c
  1868  000898  D78F               	goto	l4317
  1869  00089A  0A07               	xorlw	7	; case 36
  1870  00089C  B4D8               	btfsc	status,2,c
  1871  00089E  D79C               	goto	l4323
  1872  0008A0  D67A               	goto	l4245
  1873  0008A2                     __end_of_main:
  1874                           	opt stack 0
  1875                           tblptru	equ	0xFF8
  1876                           tblptrh	equ	0xFF7
  1877                           tblptrl	equ	0xFF6
  1878                           tablat	equ	0xFF5
  1879                           prodh	equ	0xFF4
  1880                           prodl	equ	0xFF3
  1881                           postinc0	equ	0xFEE
  1882                           wreg	equ	0xFE8
  1883                           indf1	equ	0xFE7
  1884                           fsr1h	equ	0xFE2
  1885                           fsr1l	equ	0xFE1
  1886                           indf2	equ	0xFDF
  1887                           fsr2h	equ	0xFDA
  1888                           fsr2l	equ	0xFD9
  1889                           status	equ	0xFD8
  1890                           
  1891 ;; *************** function _uart_configure *****************
  1892 ;; Defined at:
  1893 ;;		line 22 in file "../src/my_uart.c"
  1894 ;; Parameters:    Size  Location     Type
  1895 ;;		None
  1896 ;; Auto vars:     Size  Location     Type
  1897 ;;		None
  1898 ;; Return value:  Size  Location     Type
  1899 ;;		None               void
  1900 ;; Registers used:
  1901 ;;		wreg, status,2
  1902 ;; Tracked objects:
  1903 ;;		On entry : 0/0
  1904 ;;		On exit  : 0/0
  1905 ;;		Unchanged: 0/0
  1906 ;; Data sizes:     COMRAM   BANK0   BANK1   BANK2   BANK3   BANK4   BANK5   BANK6   BANK7   BANK8   BANK9  BANK10  BANK1
      +1  BANK12  BANK13  BANK14
  1907 ;;      Params:         0       0       0       0       0       0       0       0       0       0       0       0       
      +0       0       0       0
  1908 ;;      Locals:         0       0       0       0       0       0       0       0       0       0       0       0       
      +0       0       0       0
  1909 ;;      Temps:          0       0       0       0       0       0       0       0       0       0       0       0       
      +0       0       0       0
  1910 ;;      Totals:         0       0       0       0       0       0       0       0       0       0       0       0       
      +0       0       0       0
  1911 ;;Total ram usage:        0 bytes
  1912 ;; Hardware stack levels used:    1
  1913 ;; Hardware stack levels required when called:   10
  1914 ;; This function calls:
  1915 ;;		Nothing
  1916 ;; This function is called by:
  1917 ;;		_main
  1918 ;; This function uses a non-reentrant model
  1919 ;;
  1920                           
  1921                           	psect	text1
  1922  001B40                     __ptext1:
  1923                           	opt stack 0
  1924  001B40                     _uart_configure:
  1925                           	opt stack 20
  1926                           
  1927                           ;my_uart.c: 24: TRISCbits.TRISC7 = 1;
  1928                           
  1929                           ; BSR set to: 2
  1930                           ;incstack = 0
  1931  001B40  8E94               	bsf	3988,7,c	;volatile
  1932                           
  1933                           ;my_uart.c: 25: TRISCbits.TRISC6 = 0;
  1934  001B42  9C94               	bcf	3988,6,c	;volatile
  1935                           
  1936                           ;my_uart.c: 27: BAUDCONbits.BRG16 = 1;
  1937  001B44  867E               	bsf	3966,3,c	;volatile
  1938                           
  1939                           ;my_uart.c: 28: TXSTA1bits.BRGH = 1;
  1940  001B46  84AD               	bsf	4013,2,c	;volatile
  1941                           
  1942                           ;my_uart.c: 31: SPBRGH1 = 0x00;
  1943  001B48  0E00               	movlw	0
  1944  001B4A  6E7F               	movwf	3967,c	;volatile
  1945                           
  1946                           ;my_uart.c: 32: SPBRG1 = 0xCF;
  1947  001B4C  0ECF               	movlw	207
  1948  001B4E  6EB0               	movwf	4016,c	;volatile
  1949                           
  1950                           ;my_uart.c: 34: TXSTA1bits.SYNC = 0;
  1951  001B50  98AD               	bcf	4013,4,c	;volatile
  1952                           
  1953                           ;my_uart.c: 35: RCSTA1bits.SPEN = 1;
  1954  001B52  8EAC               	bsf	4012,7,c	;volatile
  1955                           
  1956                           ;my_uart.c: 38: IPR1bits.TX1IP = 0;
  1957  001B54  989F               	bcf	3999,4,c	;volatile
  1958                           
  1959                           ;my_uart.c: 40: PIE1bits.TX1IE = 0;
  1960  001B56  989D               	bcf	3997,4,c	;volatile
  1961                           
  1962                           ;my_uart.c: 41: PIE1bits.RC1IE = 1;
  1963  001B58  8A9D               	bsf	3997,5,c	;volatile
  1964                           
  1965                           ;my_uart.c: 43: TXSTA1bits.TXEN = 1;
  1966  001B5A  8AAD               	bsf	4013,5,c	;volatile
  1967                           
  1968                           ;my_uart.c: 44: RCSTA1bits.CREN = 1;
  1969  001B5C  88AC               	bsf	4012,4,c	;volatile
  1970  001B5E  0012               	return	
  1971  001B60                     __end_of_uart_configure:
  1972                           	opt stack 0
  1973                           tblptru	equ	0xFF8
  1974                           tblptrh	equ	0xFF7
  1975                           tblptrl	equ	0xFF6
  1976                           tablat	equ	0xFF5
  1977                           prodh	equ	0xFF4
  1978                           prodl	equ	0xFF3
  1979                           postinc0	equ	0xFEE
  1980                           wreg	equ	0xFE8
  1981                           indf1	equ	0xFE7
  1982                           fsr1h	equ	0xFE2
  1983                           fsr1l	equ	0xFE1
  1984                           indf2	equ	0xFDF
  1985                           fsr2h	equ	0xFDA
  1986                           fsr2l	equ	0xFD9
  1987                           status	equ	0xFD8
  1988                           
  1989 ;; *************** function _timer1_lthread *****************
  1990 ;; Defined at:
  1991 ;;		line 17 in file "../src/timer1_thread.c"
  1992 ;; Parameters:    Size  Location     Type
  1993 ;;  tptr            2   10[BANK1 ] PTR struct __timer1_thre
  1994 ;;		 -> main@t1thread_data(17), 
  1995 ;;  msgtype         2   12[BANK1 ] int 
  1996 ;;  length          2   14[BANK1 ] int 
  1997 ;;  msgbuffer       2   16[BANK1 ] PTR unsigned char 
  1998 ;;		 -> main@msgbuffer(15), 
  1999 ;; Auto vars:     Size  Location     Type
  2000 ;;  i2c_msg        14   18[BANK1 ] unsigned char [14]
  2001 ;;  retval          1   32[BANK1 ] char 
  2002 ;; Return value:  Size  Location     Type
  2003 ;;                  2   10[BANK1 ] int 
  2004 ;; Registers used:
  2005 ;;		wreg, fsr1l, fsr1h, fsr2l, fsr2h, status,2, status,0, prodl, prodh, cstack
  2006 ;; Tracked objects:
  2007 ;;		On entry : 0/0
  2008 ;;		On exit  : 0/0
  2009 ;;		Unchanged: 0/0
  2010 ;; Data sizes:     COMRAM   BANK0   BANK1   BANK2   BANK3   BANK4   BANK5   BANK6   BANK7   BANK8   BANK9  BANK10  BANK1
      +1  BANK12  BANK13  BANK14
  2011 ;;      Params:         0       0       8       0       0       0       0       0       0       0       0       0       
      +0       0       0       0
  2012 ;;      Locals:         0       0      15       0       0       0       0       0       0       0       0       0       
      +0       0       0       0
  2013 ;;      Temps:          0       0       0       0       0       0       0       0       0       0       0       0       
      +0       0       0       0
  2014 ;;      Totals:         0       0      23       0       0       0       0       0       0       0       0       0       
      +0       0       0       0
  2015 ;;Total ram usage:       23 bytes
  2016 ;; Hardware stack levels used:    1
  2017 ;; Hardware stack levels required when called:   14
  2018 ;; This function calls:
  2019 ;;		_FromMainHigh_sendmsg
  2020 ;;		___lwmod
  2021 ;;		_blink0
  2022 ;;		_i2c_master_send
  2023 ;; This function is called by:
  2024 ;;		_main
  2025 ;; This function uses a non-reentrant model
  2026 ;;
  2027                           
  2028                           	psect	text2
  2029  000A52                     __ptext2:
  2030                           	opt stack 0
  2031  000A52                     _timer1_lthread:
  2032                           	opt stack 16
  2033                           
  2034                           ;timer1_thread.c: 18: signed char retval;
  2035                           ;timer1_thread.c: 19: blink0();
  2036                           
  2037                           ;incstack = 0
  2038  000A52  EC26  F00E         	call	_blink0	;wreg free
  2039                           
  2040                           ;timer1_thread.c: 21: unsigned char i2c_msg[14];
  2041                           ;timer1_thread.c: 22: i2c_msg[0]=0x04;
  2042  000A56  0E04               	movlw	4
  2043  000A58  0101               	movlb	1	; () banked
  2044  000A5A  6F9C               	movwf	timer1_lthread@i2c_msg& (0+255),b
  2045                           
  2046                           ; BSR set to: 1
  2047                           ;timer1_thread.c: 24: i2c_master_send(14,i2c_msg);
  2048  000A5C  0101               	movlb	1	; () banked
  2049  000A5E  0E01               	movlw	high timer1_lthread@i2c_msg
  2050  000A60  0101               	movlb	1	; () banked
  2051  000A62  6F91               	movwf	(i2c_master_send@msg+1)& (0+255),b
  2052  000A64  0101               	movlb	1	; () banked
  2053  000A66  0E9C               	movlw	low timer1_lthread@i2c_msg
  2054  000A68  0101               	movlb	1	; () banked
  2055  000A6A  6F90               	movwf	i2c_master_send@msg& (0+255),b
  2056  000A6C  0E0E               	movlw	14
  2057  000A6E  ECE2  F00C         	call	_i2c_master_send
  2058                           
  2059                           ;timer1_thread.c: 26: static unsigned char move_counter = 0;
  2060                           ;timer1_thread.c: 28: if( tptr->new_move_msg )
  2061  000A72  0101               	movlb	1	; () banked
  2062  000A74  EE20 F00E          	lfsr	2,14
  2063  000A78  0101               	movlb	1	; () banked
  2064  000A7A  5194               	movf	timer1_lthread@tptr& (0+255),w,b
  2065  000A7C  26D9               	addwf	fsr2l,f,c
  2066  000A7E  0101               	movlb	1	; () banked
  2067  000A80  5195               	movf	(timer1_lthread@tptr+1)& (0+255),w,b
  2068  000A82  22DA               	addwfc	fsr2h,f,c
  2069  000A84  50DF               	movf	indf2,w,c
  2070  000A86  B4D8               	btfsc	status,2,c
  2071  000A88  D017               	goto	l4117
  2072                           
  2073                           ; BSR set to: 1
  2074                           ;timer1_thread.c: 29: {
  2075                           ;timer1_thread.c: 30: tptr->new_move_msg = 0;
  2076  000A8A  0101               	movlb	1	; () banked
  2077  000A8C  EE20 F00E          	lfsr	2,14
  2078  000A90  0101               	movlb	1	; () banked
  2079  000A92  5194               	movf	timer1_lthread@tptr& (0+255),w,b
  2080  000A94  26D9               	addwf	fsr2l,f,c
  2081  000A96  0101               	movlb	1	; () banked
  2082  000A98  5195               	movf	(timer1_lthread@tptr+1)& (0+255),w,b
  2083  000A9A  22DA               	addwfc	fsr2h,f,c
  2084  000A9C  0E00               	movlw	0
  2085  000A9E  6EDF               	movwf	indf2,c
  2086                           
  2087                           ;timer1_thread.c: 31: move_counter = tptr->move_msg[4];
  2088  000AA0  0101               	movlb	1	; () banked
  2089  000AA2  EE20 F004          	lfsr	2,4
  2090  000AA6  0101               	movlb	1	; () banked
  2091  000AA8  5194               	movf	timer1_lthread@tptr& (0+255),w,b
  2092  000AAA  26D9               	addwf	fsr2l,f,c
  2093  000AAC  0101               	movlb	1	; () banked
  2094  000AAE  5195               	movf	(timer1_lthread@tptr+1)& (0+255),w,b
  2095  000AB0  22DA               	addwfc	fsr2h,f,c
  2096  000AB2  50DF               	movf	indf2,w,c
  2097  000AB4  0100               	movlb	0	; () banked
  2098  000AB6  6FB9               	movwf	timer1_lthread@move_counter& (0+255),b
  2099  000AB8                     l4117:
  2100                           
  2101                           ;timer1_thread.c: 32: }
  2102                           ;timer1_thread.c: 34: if( move_counter != 0 )
  2103  000AB8  0100               	movlb	0	; () banked
  2104  000ABA  51B9               	movf	timer1_lthread@move_counter& (0+255),w,b
  2105  000ABC  B4D8               	btfsc	status,2,c
  2106  000ABE  D00C               	goto	l4123
  2107                           
  2108                           ; BSR set to: 0
  2109                           ;timer1_thread.c: 35: {
  2110                           ;timer1_thread.c: 36: i2c_master_send(14,tptr->move_msg);
  2111  000AC0  0101               	movlb	1	; () banked
  2112  000AC2  C195  F191         	movff	timer1_lthread@tptr+1,i2c_master_send@msg+1
  2113  000AC6  0101               	movlb	1	; () banked
  2114  000AC8  C194  F190         	movff	timer1_lthread@tptr,i2c_master_send@msg
  2115  000ACC  0E0E               	movlw	14
  2116  000ACE  ECE2  F00C         	call	_i2c_master_send
  2117                           
  2118                           ;timer1_thread.c: 37: move_counter--;
  2119  000AD2  0100               	movlb	0	; () banked
  2120  000AD4  07B9               	decf	timer1_lthread@move_counter& (0+255),f,b
  2121                           
  2122                           ;timer1_thread.c: 38: }
  2123  000AD6  D025               	goto	l4131
  2124  000AD8                     l4123:
  2125                           
  2126                           ; BSR set to: 0
  2127                           ;timer1_thread.c: 39: else
  2128                           ;timer1_thread.c: 40: {
  2129                           ;timer1_thread.c: 41: tptr->move_msg[0]=0x01;
  2130  000AD8  C194  FFD9         	movff	timer1_lthread@tptr,fsr2l
  2131  000ADC  C195  FFDA         	movff	timer1_lthread@tptr+1,fsr2h
  2132  000AE0  0E01               	movlw	1
  2133  000AE2  6EDF               	movwf	indf2,c
  2134                           
  2135                           ; BSR set to: 0
  2136                           ;timer1_thread.c: 42: tptr->move_msg[1]=0;
  2137  000AE4  0101               	movlb	1	; () banked
  2138  000AE6  EE20 F001          	lfsr	2,1
  2139  000AEA  0101               	movlb	1	; () banked
  2140  000AEC  5194               	movf	timer1_lthread@tptr& (0+255),w,b
  2141  000AEE  26D9               	addwf	fsr2l,f,c
  2142  000AF0  0101               	movlb	1	; () banked
  2143  000AF2  5195               	movf	(timer1_lthread@tptr+1)& (0+255),w,b
  2144  000AF4  22DA               	addwfc	fsr2h,f,c
  2145  000AF6  0E00               	movlw	0
  2146  000AF8  6EDF               	movwf	indf2,c
  2147                           
  2148                           ; BSR set to: 1
  2149                           ;timer1_thread.c: 43: tptr->move_msg[2]=0;
  2150  000AFA  0101               	movlb	1	; () banked
  2151  000AFC  EE20 F002          	lfsr	2,2
  2152  000B00  0101               	movlb	1	; () banked
  2153  000B02  5194               	movf	timer1_lthread@tptr& (0+255),w,b
  2154  000B04  26D9               	addwf	fsr2l,f,c
  2155  000B06  0101               	movlb	1	; () banked
  2156  000B08  5195               	movf	(timer1_lthread@tptr+1)& (0+255),w,b
  2157  000B0A  22DA               	addwfc	fsr2h,f,c
  2158  000B0C  0E00               	movlw	0
  2159  000B0E  6EDF               	movwf	indf2,c
  2160                           
  2161                           ; BSR set to: 1
  2162                           ;timer1_thread.c: 44: i2c_master_send(14,tptr->move_msg);
  2163  000B10  0101               	movlb	1	; () banked
  2164  000B12  C195  F191         	movff	timer1_lthread@tptr+1,i2c_master_send@msg+1
  2165  000B16  0101               	movlb	1	; () banked
  2166  000B18  C194  F190         	movff	timer1_lthread@tptr,i2c_master_send@msg
  2167  000B1C  0E0E               	movlw	14
  2168  000B1E  ECE2  F00C         	call	_i2c_master_send
  2169  000B22                     l4131:
  2170                           
  2171                           ;timer1_thread.c: 45: }
  2172                           ;timer1_thread.c: 48: i2c_msg[0]=0x06;
  2173  000B22  0E06               	movlw	6
  2174  000B24  0101               	movlb	1	; () banked
  2175  000B26  6F9C               	movwf	timer1_lthread@i2c_msg& (0+255),b
  2176                           
  2177                           ; BSR set to: 1
  2178                           ;timer1_thread.c: 50: i2c_master_send(14,i2c_msg);
  2179  000B28  0101               	movlb	1	; () banked
  2180  000B2A  0E01               	movlw	high timer1_lthread@i2c_msg
  2181  000B2C  0101               	movlb	1	; () banked
  2182  000B2E  6F91               	movwf	(i2c_master_send@msg+1)& (0+255),b
  2183  000B30  0101               	movlb	1	; () banked
  2184  000B32  0E9C               	movlw	low timer1_lthread@i2c_msg
  2185  000B34  0101               	movlb	1	; () banked
  2186  000B36  6F90               	movwf	i2c_master_send@msg& (0+255),b
  2187  000B38  0E0E               	movlw	14
  2188  000B3A  ECE2  F00C         	call	_i2c_master_send
  2189                           
  2190                           ;timer1_thread.c: 53: tptr->msgcount++;
  2191  000B3E  0101               	movlb	1	; () banked
  2192  000B40  EE20 F00F          	lfsr	2,15
  2193  000B44  0101               	movlb	1	; () banked
  2194  000B46  5194               	movf	timer1_lthread@tptr& (0+255),w,b
  2195  000B48  26D9               	addwf	fsr2l,f,c
  2196  000B4A  0101               	movlb	1	; () banked
  2197  000B4C  5195               	movf	(timer1_lthread@tptr+1)& (0+255),w,b
  2198  000B4E  22DA               	addwfc	fsr2h,f,c
  2199  000B50  2ADE               	incf	postinc2,f,c
  2200  000B52  0E00               	movlw	0
  2201  000B54  22DD               	addwfc	postdec2,f,c
  2202                           
  2203                           ; BSR set to: 1
  2204                           ;timer1_thread.c: 56: if ((tptr->msgcount % 10) == 9) {
  2205  000B56  0101               	movlb	1	; () banked
  2206  000B58  EE20 F00F          	lfsr	2,15
  2207  000B5C  0101               	movlb	1	; () banked
  2208  000B5E  5194               	movf	timer1_lthread@tptr& (0+255),w,b
  2209  000B60  26D9               	addwf	fsr2l,f,c
  2210  000B62  0101               	movlb	1	; () banked
  2211  000B64  5195               	movf	(timer1_lthread@tptr+1)& (0+255),w,b
  2212  000B66  22DA               	addwfc	fsr2h,f,c
  2213  000B68  0100               	movlb	0	; () banked
  2214  000B6A  CFDE F092          	movff	postinc2,___lwmod@dividend
  2215  000B6E  0100               	movlb	0	; () banked
  2216  000B70  CFDD F093          	movff	postdec2,___lwmod@dividend+1
  2217  000B74  0E00               	movlw	0
  2218  000B76  0100               	movlb	0	; () banked
  2219  000B78  6F95               	movwf	(___lwmod@divisor+1)& (0+255),b
  2220  000B7A  0E0A               	movlw	10
  2221  000B7C  0100               	movlb	0	; () banked
  2222  000B7E  6F94               	movwf	___lwmod@divisor& (0+255),b
  2223  000B80  ECB1  F00A         	call	___lwmod	;wreg free
  2224  000B84  0100               	movlb	0	; () banked
  2225  000B86  5192               	movf	?___lwmod& (0+255),w,b
  2226  000B88  0A09               	xorlw	9
  2227  000B8A  0100               	movlb	0	; () banked
  2228  000B8C  1193               	iorwf	(?___lwmod+1)& (0+255),w,b
  2229  000B8E  A4D8               	btfss	status,2,c
  2230  000B90  0012               	return	
  2231                           
  2232                           ; BSR set to: 0
  2233                           ;timer1_thread.c: 57: retval = FromMainHigh_sendmsg(sizeof (tptr->msgcount), 20, (void *
      +                          ) &(tptr->msgcount));
  2234  000B92  0E14               	movlw	20
  2235  000B94  0100               	movlb	0	; () banked
  2236  000B96  6FA3               	movwf	FromMainHigh_sendmsg@msgtype& (0+255),b
  2237  000B98  0E0F               	movlw	15
  2238  000B9A  0101               	movlb	1	; () banked
  2239  000B9C  2594               	addwf	timer1_lthread@tptr& (0+255),w,b
  2240  000B9E  0100               	movlb	0	; () banked
  2241  000BA0  6FA4               	movwf	FromMainHigh_sendmsg@data& (0+255),b
  2242  000BA2  0E00               	movlw	0
  2243  000BA4  0101               	movlb	1	; () banked
  2244  000BA6  2195               	addwfc	(timer1_lthread@tptr+1)& (0+255),w,b
  2245  000BA8  0100               	movlb	0	; () banked
  2246  000BAA  6FA5               	movwf	(FromMainHigh_sendmsg@data+1)& (0+255),b
  2247  000BAC  0E02               	movlw	2
  2248  000BAE  ECFA  F00C         	call	_FromMainHigh_sendmsg
  2249  000BB2  0101               	movlb	1	; () banked
  2250  000BB4  6FAA               	movwf	timer1_lthread@retval& (0+255),b
  2251  000BB6  0012               	return	
  2252  000BB8                     __end_of_timer1_lthread:
  2253                           	opt stack 0
  2254                           tblptru	equ	0xFF8
  2255                           tblptrh	equ	0xFF7
  2256                           tblptrl	equ	0xFF6
  2257                           tablat	equ	0xFF5
  2258                           prodh	equ	0xFF4
  2259                           prodl	equ	0xFF3
  2260                           postinc0	equ	0xFEE
  2261                           wreg	equ	0xFE8
  2262                           indf1	equ	0xFE7
  2263                           fsr1h	equ	0xFE2
  2264                           fsr1l	equ	0xFE1
  2265                           indf2	equ	0xFDF
  2266                           postinc2	equ	0xFDE
  2267                           postdec2	equ	0xFDD
  2268                           fsr2h	equ	0xFDA
  2269                           fsr2l	equ	0xFD9
  2270                           status	equ	0xFD8
  2271                           
  2272 ;; *************** function _i2c_master_send *****************
  2273 ;; Defined at:
  2274 ;;		line 47 in file "../src/my_i2c.c"
  2275 ;; Parameters:    Size  Location     Type
  2276 ;;  length          1    wreg     unsigned char 
  2277 ;;  msg             2    6[BANK1 ] PTR unsigned char 
  2278 ;;		 -> timer1_lthread@i2c_msg(14), main@t1thread_data(17), 
  2279 ;; Auto vars:     Size  Location     Type
  2280 ;;  length          1    9[BANK1 ] unsigned char 
  2281 ;; Return value:  Size  Location     Type
  2282 ;;                  1    wreg      unsigned char 
  2283 ;; Registers used:
  2284 ;;		wreg, fsr1l, fsr1h, fsr2l, fsr2h, status,2, status,0, prodl, prodh, cstack
  2285 ;; Tracked objects:
  2286 ;;		On entry : 0/0
  2287 ;;		On exit  : 0/0
  2288 ;;		Unchanged: 0/0
  2289 ;; Data sizes:     COMRAM   BANK0   BANK1   BANK2   BANK3   BANK4   BANK5   BANK6   BANK7   BANK8   BANK9  BANK10  BANK1
      +1  BANK12  BANK13  BANK14
  2290 ;;      Params:         0       0       2       0       0       0       0       0       0       0       0       0       
      +0       0       0       0
  2291 ;;      Locals:         0       0       1       0       0       0       0       0       0       0       0       0       
      +0       0       0       0
  2292 ;;      Temps:          0       0       1       0       0       0       0       0       0       0       0       0       
      +0       0       0       0
  2293 ;;      Totals:         0       0       4       0       0       0       0       0       0       0       0       0       
      +0       0       0       0
  2294 ;;Total ram usage:        4 bytes
  2295 ;; Hardware stack levels used:    1
  2296 ;; Hardware stack levels required when called:   13
  2297 ;; This function calls:
  2298 ;;		_FromMainHigh_sendmsg
  2299 ;; This function is called by:
  2300 ;;		_timer1_lthread
  2301 ;; This function uses a non-reentrant model
  2302 ;;
  2303                           
  2304                           	psect	text3
  2305  0019C4                     __ptext3:
  2306                           	opt stack 0
  2307  0019C4                     _i2c_master_send:
  2308                           	opt stack 16
  2309                           
  2310                           ;incstack = 0
  2311                           ;i2c_master_send@length stored from wreg
  2312  0019C4  0101               	movlb	1	; () banked
  2313  0019C6  6F93               	movwf	i2c_master_send@length& (0+255),b
  2314                           
  2315                           ; BSR set to: 1
  2316                           ;my_i2c.c: 49: if( FromMainHigh_sendmsg(length,40,(void *)msg) == -1 )
  2317  0019C8  0E28               	movlw	40
  2318  0019CA  0100               	movlb	0	; () banked
  2319  0019CC  6FA3               	movwf	FromMainHigh_sendmsg@msgtype& (0+255),b
  2320  0019CE  0101               	movlb	1	; () banked
  2321  0019D0  0100               	movlb	0	; () banked
  2322  0019D2  C191  F0A5         	movff	i2c_master_send@msg+1,FromMainHigh_sendmsg@data+1
  2323  0019D6  0101               	movlb	1	; () banked
  2324  0019D8  0100               	movlb	0	; () banked
  2325  0019DA  C190  F0A4         	movff	i2c_master_send@msg,FromMainHigh_sendmsg@data
  2326  0019DE  0101               	movlb	1	; () banked
  2327  0019E0  5193               	movf	i2c_master_send@length& (0+255),w,b
  2328  0019E2  ECFA  F00C         	call	_FromMainHigh_sendmsg
  2329  0019E6  0101               	movlb	1	; () banked
  2330  0019E8  6F92               	movwf	??_i2c_master_send& (0+255),b
  2331  0019EA  0101               	movlb	1	; () banked
  2332  0019EC  2992               	incf	??_i2c_master_send& (0+255),w,b
  2333  0019EE  A4D8               	btfss	status,2,c
  2334                           
  2335                           ; BSR set to: 1
  2336                           ;my_i2c.c: 56: }
  2337                           ;my_i2c.c: 58: PIR1bits.SSP1IF = 1;
  2338                           
  2339                           ; BSR set to: 1
  2340                           ;my_i2c.c: 53: else
  2341                           ;my_i2c.c: 54: {
  2342                           
  2343                           ; BSR set to: 1
  2344                           ;my_i2c.c: 52: }
  2345                           
  2346                           ; BSR set to: 1
  2347                           ;my_i2c.c: 50: {
  2348                           ;my_i2c.c: 51: return -1;
  2349                           ;	Return value of _i2c_master_send is never used
  2350  0019F0  869E               	bsf	3998,3,c	;volatile
  2351                           
  2352                           ; BSR set to: 1
  2353                           
  2354                           ;my_i2c.c: 61: return(0);
  2355                           ;	Return value of _i2c_master_send is never used
  2356  0019F2  0012               	return	
  2357  0019F4                     __end_of_i2c_master_send:
  2358                           	opt stack 0
  2359                           tblptru	equ	0xFF8
  2360                           tblptrh	equ	0xFF7
  2361                           tblptrl	equ	0xFF6
  2362                           tablat	equ	0xFF5
  2363                           prodh	equ	0xFF4
  2364                           prodl	equ	0xFF3
  2365                           postinc0	equ	0xFEE
  2366                           wreg	equ	0xFE8
  2367                           indf1	equ	0xFE7
  2368                           fsr1h	equ	0xFE2
  2369                           fsr1l	equ	0xFE1
  2370                           indf2	equ	0xFDF
  2371                           postinc2	equ	0xFDE
  2372                           postdec2	equ	0xFDD
  2373                           fsr2h	equ	0xFDA
  2374                           fsr2l	equ	0xFD9
  2375                           status	equ	0xFD8
  2376                           
  2377 ;; *************** function _FromMainHigh_sendmsg *****************
  2378 ;; Defined at:
  2379 ;;		line 175 in file "../src/messages.c"
  2380 ;; Parameters:    Size  Location     Type
  2381 ;;  length          1    wreg     unsigned char 
  2382 ;;  msgtype         1   67[BANK0 ] unsigned char 
  2383 ;;  data            2   68[BANK0 ] PTR void 
  2384 ;;		 -> timer1_lthread@i2c_msg(14), main@t1thread_data(17), 
  2385 ;; Auto vars:     Size  Location     Type
  2386 ;;  length          1    5[BANK1 ] unsigned char 
  2387 ;; Return value:  Size  Location     Type
  2388 ;;                  1    wreg      char 
  2389 ;; Registers used:
  2390 ;;		wreg, fsr1l, fsr1h, fsr2l, fsr2h, status,2, status,0, prodl, prodh, cstack
  2391 ;; Tracked objects:
  2392 ;;		On entry : 0/0
  2393 ;;		On exit  : 0/0
  2394 ;;		Unchanged: 0/0
  2395 ;; Data sizes:     COMRAM   BANK0   BANK1   BANK2   BANK3   BANK4   BANK5   BANK6   BANK7   BANK8   BANK9  BANK10  BANK1
      +1  BANK12  BANK13  BANK14
  2396 ;;      Params:         0       3       0       0       0       0       0       0       0       0       0       0       
      +0       0       0       0
  2397 ;;      Locals:         0       0       1       0       0       0       0       0       0       0       0       0       
      +0       0       0       0
  2398 ;;      Temps:          0       0       0       0       0       0       0       0       0       0       0       0       
      +0       0       0       0
  2399 ;;      Totals:         0       3       1       0       0       0       0       0       0       0       0       0       
      +0       0       0       0
  2400 ;;Total ram usage:        4 bytes
  2401 ;; Hardware stack levels used:    1
  2402 ;; Hardware stack levels required when called:   12
  2403 ;; This function calls:
  2404 ;;		_send_msg
  2405 ;; This function is called by:
  2406 ;;		_i2c_master_send
  2407 ;;		_timer1_lthread
  2408 ;; This function uses a non-reentrant model
  2409 ;;
  2410                           
  2411                           	psect	text4
  2412  0019F4                     __ptext4:
  2413                           	opt stack 0
  2414  0019F4                     _FromMainHigh_sendmsg:
  2415                           	opt stack 16
  2416                           
  2417                           ; BSR set to: 1
  2418                           ;incstack = 0
  2419                           ;FromMainHigh_sendmsg@length stored from wreg
  2420  0019F4  0101               	movlb	1	; () banked
  2421  0019F6  6F8F               	movwf	FromMainHigh_sendmsg@length& (0+255),b
  2422                           
  2423                           ; BSR set to: 1
  2424                           ;messages.c: 181: return (send_msg(&FromMainHigh_MQ, length, msgtype, data));
  2425  0019F8  0104               	movlb	4	; () banked
  2426  0019FA  0E04               	movlw	high _FromMainHigh_MQ
  2427  0019FC  0100               	movlb	0	; () banked
  2428  0019FE  6F9D               	movwf	(send_msg@qptr+1)& (0+255),b
  2429  001A00  0104               	movlb	4	; () banked
  2430  001A02  0E00               	movlw	low _FromMainHigh_MQ
  2431  001A04  0100               	movlb	0	; () banked
  2432  001A06  6F9C               	movwf	send_msg@qptr& (0+255),b
  2433  001A08  C18F  F09E         	movff	FromMainHigh_sendmsg@length,send_msg@length
  2434  001A0C  C0A3  F09F         	movff	FromMainHigh_sendmsg@msgtype,send_msg@msgtype
  2435  001A10  0100               	movlb	0	; () banked
  2436  001A12  C0A5  F0A1         	movff	FromMainHigh_sendmsg@data+1,send_msg@data+1
  2437  001A16  0100               	movlb	0	; () banked
  2438  001A18  C0A4  F0A0         	movff	FromMainHigh_sendmsg@data,send_msg@data
  2439  001A1C  ECFA  F006         	call	_send_msg	;wreg free
  2440  001A20  0012               	return	
  2441  001A22                     __end_of_FromMainHigh_sendmsg:
  2442                           	opt stack 0
  2443                           tblptru	equ	0xFF8
  2444                           tblptrh	equ	0xFF7
  2445                           tblptrl	equ	0xFF6
  2446                           tablat	equ	0xFF5
  2447                           prodh	equ	0xFF4
  2448                           prodl	equ	0xFF3
  2449                           postinc0	equ	0xFEE
  2450                           wreg	equ	0xFE8
  2451                           indf1	equ	0xFE7
  2452                           fsr1h	equ	0xFE2
  2453                           fsr1l	equ	0xFE1
  2454                           indf2	equ	0xFDF
  2455                           postinc2	equ	0xFDE
  2456                           postdec2	equ	0xFDD
  2457                           fsr2h	equ	0xFDA
  2458                           fsr2l	equ	0xFD9
  2459                           status	equ	0xFD8
  2460                           
  2461 ;; *************** function _blink0 *****************
  2462 ;; Defined at:
  2463 ;;		line 46 in file "../src/debug.c"
  2464 ;; Parameters:    Size  Location     Type
  2465 ;;		None
  2466 ;; Auto vars:     Size  Location     Type
  2467 ;;		None
  2468 ;; Return value:  Size  Location     Type
  2469 ;;		None               void
  2470 ;; Registers used:
  2471 ;;		wreg, status,2, status,0
  2472 ;; Tracked objects:
  2473 ;;		On entry : 0/0
  2474 ;;		On exit  : 0/0
  2475 ;;		Unchanged: 0/0
  2476 ;; Data sizes:     COMRAM   BANK0   BANK1   BANK2   BANK3   BANK4   BANK5   BANK6   BANK7   BANK8   BANK9  BANK10  BANK1
      +1  BANK12  BANK13  BANK14
  2477 ;;      Params:         0       0       0       0       0       0       0       0       0       0       0       0       
      +0       0       0       0
  2478 ;;      Locals:         0       0       0       0       0       0       0       0       0       0       0       0       
      +0       0       0       0
  2479 ;;      Temps:          0       0       0       0       0       0       0       0       0       0       0       0       
      +0       0       0       0
  2480 ;;      Totals:         0       0       0       0       0       0       0       0       0       0       0       0       
      +0       0       0       0
  2481 ;;Total ram usage:        0 bytes
  2482 ;; Hardware stack levels used:    1
  2483 ;; Hardware stack levels required when called:   10
  2484 ;; This function calls:
  2485 ;;		Nothing
  2486 ;; This function is called by:
  2487 ;;		_timer1_lthread
  2488 ;; This function uses a non-reentrant model
  2489 ;;
  2490                           
  2491                           	psect	text5
  2492  001C4C                     __ptext5:
  2493                           	opt stack 0
  2494  001C4C                     _blink0:
  2495                           	opt stack 19
  2496                           
  2497                           ;debug.c: 48: LATBbits.LB0 ^= 1;
  2498                           
  2499                           ;incstack = 0
  2500  001C4C  708A               	btg	3978,0,c	;volatile
  2501  001C4E  0012               	return	
  2502  001C50                     __end_of_blink0:
  2503                           	opt stack 0
  2504                           tblptru	equ	0xFF8
  2505                           tblptrh	equ	0xFF7
  2506                           tblptrl	equ	0xFF6
  2507                           tablat	equ	0xFF5
  2508                           prodh	equ	0xFF4
  2509                           prodl	equ	0xFF3
  2510                           postinc0	equ	0xFEE
  2511                           wreg	equ	0xFE8
  2512                           indf1	equ	0xFE7
  2513                           fsr1h	equ	0xFE2
  2514                           fsr1l	equ	0xFE1
  2515                           indf2	equ	0xFDF
  2516                           postinc2	equ	0xFDE
  2517                           postdec2	equ	0xFDD
  2518                           fsr2h	equ	0xFDA
  2519                           fsr2l	equ	0xFD9
  2520                           status	equ	0xFD8
  2521                           
  2522 ;; *************** function ___lwmod *****************
  2523 ;; Defined at:
  2524 ;;		line 8 in file "C:\Program Files (x86)\Microchip\xc8\v1.32\sources\common\lwmod.c"
  2525 ;; Parameters:    Size  Location     Type
  2526 ;;  dividend        2   50[BANK0 ] unsigned int 
  2527 ;;  divisor         2   52[BANK0 ] unsigned int 
  2528 ;; Auto vars:     Size  Location     Type
  2529 ;;  counter         1   54[BANK0 ] unsigned char 
  2530 ;; Return value:  Size  Location     Type
  2531 ;;                  2   50[BANK0 ] unsigned int 
  2532 ;; Registers used:
  2533 ;;		wreg, status,2, status,0
  2534 ;; Tracked objects:
  2535 ;;		On entry : 0/0
  2536 ;;		On exit  : 0/0
  2537 ;;		Unchanged: 0/0
  2538 ;; Data sizes:     COMRAM   BANK0   BANK1   BANK2   BANK3   BANK4   BANK5   BANK6   BANK7   BANK8   BANK9  BANK10  BANK1
      +1  BANK12  BANK13  BANK14
  2539 ;;      Params:         0       4       0       0       0       0       0       0       0       0       0       0       
      +0       0       0       0
  2540 ;;      Locals:         0       1       0       0       0       0       0       0       0       0       0       0       
      +0       0       0       0
  2541 ;;      Temps:          0       0       0       0       0       0       0       0       0       0       0       0       
      +0       0       0       0
  2542 ;;      Totals:         0       5       0       0       0       0       0       0       0       0       0       0       
      +0       0       0       0
  2543 ;;Total ram usage:        5 bytes
  2544 ;; Hardware stack levels used:    1
  2545 ;; Hardware stack levels required when called:   10
  2546 ;; This function calls:
  2547 ;;		Nothing
  2548 ;; This function is called by:
  2549 ;;		_timer1_lthread
  2550 ;; This function uses a non-reentrant model
  2551 ;;
  2552                           
  2553                           	psect	text6
  2554  001562                     __ptext6:
  2555                           	opt stack 0
  2556  001562                     ___lwmod:
  2557                           	opt stack 19
  2558                           
  2559                           ;incstack = 0
  2560  001562  0100               	movlb	0	; () banked
  2561  001564  5195               	movf	(___lwmod@divisor+1)& (0+255),w,b
  2562  001566  1194               	iorwf	___lwmod@divisor& (0+255),w,b
  2563  001568  B4D8               	btfsc	status,2,c
  2564  00156A  D026               	goto	l1142
  2565                           
  2566                           ; BSR set to: 0
  2567  00156C  0E01               	movlw	1
  2568  00156E  0100               	movlb	0	; () banked
  2569  001570  6F96               	movwf	___lwmod@counter& (0+255),b
  2570  001572  D006               	goto	l3693
  2571  001574                     l3691:
  2572                           
  2573                           ; BSR set to: 0
  2574  001574  0100               	movlb	0	; () banked
  2575  001576  90D8               	bcf	status,0,c
  2576  001578  3794               	rlcf	___lwmod@divisor& (0+255),f,b
  2577  00157A  3795               	rlcf	(___lwmod@divisor+1)& (0+255),f,b
  2578  00157C  0100               	movlb	0	; () banked
  2579  00157E  2B96               	incf	___lwmod@counter& (0+255),f,b
  2580  001580                     l3693:
  2581                           
  2582                           ; BSR set to: 0
  2583  001580  0100               	movlb	0	; () banked
  2584  001582  AF95               	btfss	(___lwmod@divisor+1)& (0+255),7,b
  2585  001584  D7F7               	goto	l3691
  2586  001586                     l3695:
  2587                           
  2588                           ; BSR set to: 0
  2589  001586  0100               	movlb	0	; () banked
  2590  001588  5194               	movf	___lwmod@divisor& (0+255),w,b
  2591  00158A  0100               	movlb	0	; () banked
  2592  00158C  5D92               	subwf	___lwmod@dividend& (0+255),w,b
  2593  00158E  0100               	movlb	0	; () banked
  2594  001590  5195               	movf	(___lwmod@divisor+1)& (0+255),w,b
  2595  001592  0100               	movlb	0	; () banked
  2596  001594  5993               	subwfb	(___lwmod@dividend+1)& (0+255),w,b
  2597  001596  A0D8               	btfss	status,0,c
  2598  001598  D008               	goto	l3699
  2599                           
  2600                           ; BSR set to: 0
  2601  00159A  0100               	movlb	0	; () banked
  2602  00159C  5194               	movf	___lwmod@divisor& (0+255),w,b
  2603  00159E  0100               	movlb	0	; () banked
  2604  0015A0  5F92               	subwf	___lwmod@dividend& (0+255),f,b
  2605  0015A2  0100               	movlb	0	; () banked
  2606  0015A4  5195               	movf	(___lwmod@divisor+1)& (0+255),w,b
  2607  0015A6  0100               	movlb	0	; () banked
  2608  0015A8  5B93               	subwfb	(___lwmod@dividend+1)& (0+255),f,b
  2609  0015AA                     l3699:
  2610                           
  2611                           ; BSR set to: 0
  2612  0015AA  0100               	movlb	0	; () banked
  2613  0015AC  90D8               	bcf	status,0,c
  2614  0015AE  3395               	rrcf	(___lwmod@divisor+1)& (0+255),f,b
  2615  0015B0  3394               	rrcf	___lwmod@divisor& (0+255),f,b
  2616                           
  2617                           ; BSR set to: 0
  2618  0015B2  0100               	movlb	0	; () banked
  2619  0015B4  2F96               	decfsz	___lwmod@counter& (0+255),f,b
  2620  0015B6  D7E7               	goto	l3695
  2621  0015B8                     l1142:
  2622                           
  2623                           ; BSR set to: 0
  2624  0015B8  C092  F092         	movff	___lwmod@dividend,?___lwmod
  2625  0015BC  C093  F093         	movff	___lwmod@dividend+1,?___lwmod+1
  2626                           
  2627                           ; BSR set to: 0
  2628  0015C0  0012               	return	
  2629  0015C2                     __end_of___lwmod:
  2630                           	opt stack 0
  2631                           tblptru	equ	0xFF8
  2632                           tblptrh	equ	0xFF7
  2633                           tblptrl	equ	0xFF6
  2634                           tablat	equ	0xFF5
  2635                           prodh	equ	0xFF4
  2636                           prodl	equ	0xFF3
  2637                           postinc0	equ	0xFEE
  2638                           wreg	equ	0xFE8
  2639                           indf1	equ	0xFE7
  2640                           fsr1h	equ	0xFE2
  2641                           fsr1l	equ	0xFE1
  2642                           indf2	equ	0xFDF
  2643                           postinc2	equ	0xFDE
  2644                           postdec2	equ	0xFDD
  2645                           fsr2h	equ	0xFDA
  2646                           fsr2l	equ	0xFD9
  2647                           status	equ	0xFD8
  2648                           
  2649 ;; *************** function _timer0_lthread *****************
  2650 ;; Defined at:
  2651 ;;		line 9 in file "../src/timer0_thread.c"
  2652 ;; Parameters:    Size  Location     Type
  2653 ;;  tptr            2   50[BANK0 ] PTR struct __timer0_thre
  2654 ;;		 -> main@t0thread_data(2), 
  2655 ;;  msgtype         2   52[BANK0 ] int 
  2656 ;;  length          2   54[BANK0 ] int 
  2657 ;;  msgbuffer       2   56[BANK0 ] PTR unsigned char 
  2658 ;;		 -> main@msgbuffer(15), 
  2659 ;; Auto vars:     Size  Location     Type
  2660 ;;  msgval          2   58[BANK0 ] PTR unsigned int 
  2661 ;;		 -> main@msgbuffer(15), 
  2662 ;; Return value:  Size  Location     Type
  2663 ;;                  2   50[BANK0 ] int 
  2664 ;; Registers used:
  2665 ;;		wreg, status,2, status,0
  2666 ;; Tracked objects:
  2667 ;;		On entry : 0/0
  2668 ;;		On exit  : 0/0
  2669 ;;		Unchanged: 0/0
  2670 ;; Data sizes:     COMRAM   BANK0   BANK1   BANK2   BANK3   BANK4   BANK5   BANK6   BANK7   BANK8   BANK9  BANK10  BANK1
      +1  BANK12  BANK13  BANK14
  2671 ;;      Params:         0       8       0       0       0       0       0       0       0       0       0       0       
      +0       0       0       0
  2672 ;;      Locals:         0       2       0       0       0       0       0       0       0       0       0       0       
      +0       0       0       0
  2673 ;;      Temps:          0       0       0       0       0       0       0       0       0       0       0       0       
      +0       0       0       0
  2674 ;;      Totals:         0      10       0       0       0       0       0       0       0       0       0       0       
      +0       0       0       0
  2675 ;;Total ram usage:       10 bytes
  2676 ;; Hardware stack levels used:    1
  2677 ;; Hardware stack levels required when called:   10
  2678 ;; This function calls:
  2679 ;;		Nothing
  2680 ;; This function is called by:
  2681 ;;		_main
  2682 ;; This function uses a non-reentrant model
  2683 ;;
  2684                           
  2685                           	psect	text7
  2686  001BE6                     __ptext7:
  2687                           	opt stack 0
  2688  001BE6                     _timer0_lthread:
  2689                           	opt stack 20
  2690                           
  2691                           ;timer0_thread.c: 10: unsigned int *msgval;
  2692                           ;timer0_thread.c: 12: msgval = (unsigned int *) msgbuffer;
  2693                           
  2694                           ; BSR set to: 0
  2695                           ;incstack = 0
  2696  001BE6  0100               	movlb	0	; () banked
  2697  001BE8  C099  F09B         	movff	timer0_lthread@msgbuffer+1,timer0_lthread@msgval+1
  2698  001BEC  0100               	movlb	0	; () banked
  2699  001BEE  C098  F09A         	movff	timer0_lthread@msgbuffer,timer0_lthread@msgval
  2700                           
  2701                           ; BSR set to: 0
  2702  001BF2  0012               	return	
  2703  001BF4                     __end_of_timer0_lthread:
  2704                           	opt stack 0
  2705                           tblptru	equ	0xFF8
  2706                           tblptrh	equ	0xFF7
  2707                           tblptrl	equ	0xFF6
  2708                           tablat	equ	0xFF5
  2709                           prodh	equ	0xFF4
  2710                           prodl	equ	0xFF3
  2711                           postinc0	equ	0xFEE
  2712                           wreg	equ	0xFE8
  2713                           indf1	equ	0xFE7
  2714                           fsr1h	equ	0xFE2
  2715                           fsr1l	equ	0xFE1
  2716                           indf2	equ	0xFDF
  2717                           postinc2	equ	0xFDE
  2718                           postdec2	equ	0xFDD
  2719                           fsr2h	equ	0xFDA
  2720                           fsr2l	equ	0xFD9
  2721                           status	equ	0xFD8
  2722                           
  2723 ;; *************** function _send_uart_message *****************
  2724 ;; Defined at:
  2725 ;;		line 191 in file "../src/my_uart.c"
  2726 ;; Parameters:    Size  Location     Type
  2727 ;;  message_ptr     2    6[BANK1 ] PTR unsigned char 
  2728 ;;		 -> main@uart_response(14), main@sensor_data(14), 
  2729 ;; Auto vars:     Size  Location     Type
  2730 ;;  message_q_co    1    8[BANK1 ] unsigned char 
  2731 ;; Return value:  Size  Location     Type
  2732 ;;                  1    wreg      unsigned char 
  2733 ;; Registers used:
  2734 ;;		wreg, fsr1l, fsr1h, fsr2l, fsr2h, status,2, status,0, prodl, prodh, cstack
  2735 ;; Tracked objects:
  2736 ;;		On entry : 0/0
  2737 ;;		On exit  : 0/0
  2738 ;;		Unchanged: 0/0
  2739 ;; Data sizes:     COMRAM   BANK0   BANK1   BANK2   BANK3   BANK4   BANK5   BANK6   BANK7   BANK8   BANK9  BANK10  BANK1
      +1  BANK12  BANK13  BANK14
  2740 ;;      Params:         0       0       2       0       0       0       0       0       0       0       0       0       
      +0       0       0       0
  2741 ;;      Locals:         0       0       1       0       0       0       0       0       0       0       0       0       
      +0       0       0       0
  2742 ;;      Temps:          0       0       0       0       0       0       0       0       0       0       0       0       
      +0       0       0       0
  2743 ;;      Totals:         0       0       3       0       0       0       0       0       0       0       0       0       
      +0       0       0       0
  2744 ;;Total ram usage:        3 bytes
  2745 ;; Hardware stack levels used:    1
  2746 ;; Hardware stack levels required when called:   13
  2747 ;; This function calls:
  2748 ;;		_FromMainLow_sendmsg
  2749 ;; This function is called by:
  2750 ;;		_main
  2751 ;; This function uses a non-reentrant model
  2752 ;;
  2753                           
  2754                           	psect	text8
  2755  001AF8                     __ptext8:
  2756                           	opt stack 0
  2757  001AF8                     _send_uart_message:
  2758                           	opt stack 17
  2759                           
  2760                           ;my_uart.c: 193: unsigned char message_q_code = FromMainLow_sendmsg(14,31,(void *) messa
      +                          ge_ptr );
  2761                           
  2762                           ; BSR set to: 0
  2763                           ;incstack = 0
  2764  001AF8  0E1F               	movlw	31
  2765  001AFA  0100               	movlb	0	; () banked
  2766  001AFC  6FA3               	movwf	FromMainLow_sendmsg@msgtype& (0+255),b
  2767  001AFE  0101               	movlb	1	; () banked
  2768  001B00  0100               	movlb	0	; () banked
  2769  001B02  C191  F0A5         	movff	send_uart_message@message_ptr+1,FromMainLow_sendmsg@data+1
  2770  001B06  0101               	movlb	1	; () banked
  2771  001B08  0100               	movlb	0	; () banked
  2772  001B0A  C190  F0A4         	movff	send_uart_message@message_ptr,FromMainLow_sendmsg@data
  2773  001B0E  0E0E               	movlw	14
  2774  001B10  EC11  F00D         	call	_FromMainLow_sendmsg
  2775  001B14  0101               	movlb	1	; () banked
  2776  001B16  6F92               	movwf	send_uart_message@message_q_code& (0+255),b
  2777                           
  2778                           ; BSR set to: 1
  2779                           ;my_uart.c: 198: }
  2780                           ;my_uart.c: 200: PIE1bits.TX1IE = 1;
  2781                           
  2782                           ; BSR set to: 1
  2783                           ;my_uart.c: 196: {
  2784                           ;my_uart.c: 197: return 0x02;
  2785                           ;	Return value of _send_uart_message is never used
  2786                           
  2787                           ;my_uart.c: 195: if( message_q_code == -1)
  2788  001B18  889D               	bsf	3997,4,c	;volatile
  2789                           
  2790                           ; BSR set to: 1
  2791                           
  2792                           ;my_uart.c: 201: return 0x00;
  2793                           ;	Return value of _send_uart_message is never used
  2794  001B1A  0012               	return	
  2795  001B1C                     __end_of_send_uart_message:
  2796                           	opt stack 0
  2797                           tblptru	equ	0xFF8
  2798                           tblptrh	equ	0xFF7
  2799                           tblptrl	equ	0xFF6
  2800                           tablat	equ	0xFF5
  2801                           prodh	equ	0xFF4
  2802                           prodl	equ	0xFF3
  2803                           postinc0	equ	0xFEE
  2804                           wreg	equ	0xFE8
  2805                           indf1	equ	0xFE7
  2806                           fsr1h	equ	0xFE2
  2807                           fsr1l	equ	0xFE1
  2808                           indf2	equ	0xFDF
  2809                           postinc2	equ	0xFDE
  2810                           postdec2	equ	0xFDD
  2811                           fsr2h	equ	0xFDA
  2812                           fsr2l	equ	0xFD9
  2813                           status	equ	0xFD8
  2814                           
  2815 ;; *************** function _FromMainLow_sendmsg *****************
  2816 ;; Defined at:
  2817 ;;		line 151 in file "../src/messages.c"
  2818 ;; Parameters:    Size  Location     Type
  2819 ;;  length          1    wreg     unsigned char 
  2820 ;;  msgtype         1   67[BANK0 ] unsigned char 
  2821 ;;  data            2   68[BANK0 ] PTR void 
  2822 ;;		 -> main@uart_response(14), main@sensor_data(14), 
  2823 ;; Auto vars:     Size  Location     Type
  2824 ;;  length          1    5[BANK1 ] unsigned char 
  2825 ;; Return value:  Size  Location     Type
  2826 ;;                  1    wreg      char 
  2827 ;; Registers used:
  2828 ;;		wreg, fsr1l, fsr1h, fsr2l, fsr2h, status,2, status,0, prodl, prodh, cstack
  2829 ;; Tracked objects:
  2830 ;;		On entry : 0/0
  2831 ;;		On exit  : 0/0
  2832 ;;		Unchanged: 0/0
  2833 ;; Data sizes:     COMRAM   BANK0   BANK1   BANK2   BANK3   BANK4   BANK5   BANK6   BANK7   BANK8   BANK9  BANK10  BANK1
      +1  BANK12  BANK13  BANK14
  2834 ;;      Params:         0       3       0       0       0       0       0       0       0       0       0       0       
      +0       0       0       0
  2835 ;;      Locals:         0       0       1       0       0       0       0       0       0       0       0       0       
      +0       0       0       0
  2836 ;;      Temps:          0       0       0       0       0       0       0       0       0       0       0       0       
      +0       0       0       0
  2837 ;;      Totals:         0       3       1       0       0       0       0       0       0       0       0       0       
      +0       0       0       0
  2838 ;;Total ram usage:        4 bytes
  2839 ;; Hardware stack levels used:    1
  2840 ;; Hardware stack levels required when called:   12
  2841 ;; This function calls:
  2842 ;;		_send_msg
  2843 ;; This function is called by:
  2844 ;;		_send_uart_message
  2845 ;; This function uses a non-reentrant model
  2846 ;;
  2847                           
  2848                           	psect	text9
  2849  001A22                     __ptext9:
  2850                           	opt stack 0
  2851  001A22                     _FromMainLow_sendmsg:
  2852                           	opt stack 17
  2853                           
  2854                           ; BSR set to: 1
  2855                           ;incstack = 0
  2856                           ;FromMainLow_sendmsg@length stored from wreg
  2857  001A22  0101               	movlb	1	; () banked
  2858  001A24  6F8F               	movwf	FromMainLow_sendmsg@length& (0+255),b
  2859                           
  2860                           ; BSR set to: 1
  2861                           ;messages.c: 157: return (send_msg(&FromMainLow_MQ, length, msgtype, data));
  2862  001A26  0103               	movlb	3	; () banked
  2863  001A28  0E03               	movlw	high _FromMainLow_MQ
  2864  001A2A  0100               	movlb	0	; () banked
  2865  001A2C  6F9D               	movwf	(send_msg@qptr+1)& (0+255),b
  2866  001A2E  0103               	movlb	3	; () banked
  2867  001A30  0E00               	movlw	low _FromMainLow_MQ
  2868  001A32  0100               	movlb	0	; () banked
  2869  001A34  6F9C               	movwf	send_msg@qptr& (0+255),b
  2870  001A36  C18F  F09E         	movff	FromMainLow_sendmsg@length,send_msg@length
  2871  001A3A  C0A3  F09F         	movff	FromMainLow_sendmsg@msgtype,send_msg@msgtype
  2872  001A3E  0100               	movlb	0	; () banked
  2873  001A40  C0A5  F0A1         	movff	FromMainLow_sendmsg@data+1,send_msg@data+1
  2874  001A44  0100               	movlb	0	; () banked
  2875  001A46  C0A4  F0A0         	movff	FromMainLow_sendmsg@data,send_msg@data
  2876  001A4A  ECFA  F006         	call	_send_msg	;wreg free
  2877  001A4E  0012               	return	
  2878  001A50                     __end_of_FromMainLow_sendmsg:
  2879                           	opt stack 0
  2880                           tblptru	equ	0xFF8
  2881                           tblptrh	equ	0xFF7
  2882                           tblptrl	equ	0xFF6
  2883                           tablat	equ	0xFF5
  2884                           prodh	equ	0xFF4
  2885                           prodl	equ	0xFF3
  2886                           postinc0	equ	0xFEE
  2887                           wreg	equ	0xFE8
  2888                           indf1	equ	0xFE7
  2889                           fsr1h	equ	0xFE2
  2890                           fsr1l	equ	0xFE1
  2891                           indf2	equ	0xFDF
  2892                           postinc2	equ	0xFDE
  2893                           postdec2	equ	0xFDD
  2894                           fsr2h	equ	0xFDA
  2895                           fsr2l	equ	0xFD9
  2896                           status	equ	0xFD8
  2897                           
  2898 ;; *************** function _send_msg *****************
  2899 ;; Defined at:
  2900 ;;		line 25 in file "../src/messages.c"
  2901 ;; Parameters:    Size  Location     Type
  2902 ;;  qptr            2   60[BANK0 ] PTR struct __msg_queue
  2903 ;;		 -> FromMainHigh_MQ(138), FromMainLow_MQ(138), ToMainHigh_MQ(138), ToMainLow_MQ(138), 
  2904 ;;  length          1   62[BANK0 ] unsigned char 
  2905 ;;  msgtype         1   63[BANK0 ] unsigned char 
  2906 ;;  data            2   64[BANK0 ] PTR void 
  2907 ;;		 -> NULL(0), timer0_int_handler@val(2), timer1_lthread@i2c_msg(14), uart_receive_interrupt_handler@message_count(1),
      + 
  2908 ;;		 -> uart_receive_interrupt_handler@bad_checksum_message(3), uart_receive_interrupt_handler@gooey_uart_center(14), ua
      +rt_receive_interrupt_handler@bad_counter_id(2), uart_receive_interrupt_handler@bad_end_id(1), 
  2909 ;;		 -> uart_receive_interrupt_handler@bad_start_id(1), main@uart_response(14), main@sensor_data(14), main@ic(38), 
  2910 ;;		 -> main@t1thread_data(17), 
  2911 ;; Auto vars:     Size  Location     Type
  2912 ;;  qmsg            2    3[BANK1 ] PTR struct __msg
  2913 ;;		 -> FromMainLow_MQ.queue(136), FromMainHigh_MQ.queue(136), ToMainHigh_MQ.queue(136), ToMainLow_MQ.queue(136), 
  2914 ;;		 -> FromMainHigh_MQ(138), FromMainLow_MQ(138), ToMainHigh_MQ(138), ToMainLow_MQ(138), 
  2915 ;;  tlength         2    0[BANK1 ] unsigned int 
  2916 ;;  slot            1    2[BANK1 ] unsigned char 
  2917 ;; Return value:  Size  Location     Type
  2918 ;;                  1    wreg      char 
  2919 ;; Registers used:
  2920 ;;		wreg, fsr1l, fsr1h, fsr2l, fsr2h, status,2, status,0, prodl, prodh, cstack
  2921 ;; Tracked objects:
  2922 ;;		On entry : 0/0
  2923 ;;		On exit  : 0/0
  2924 ;;		Unchanged: 0/0
  2925 ;; Data sizes:     COMRAM   BANK0   BANK1   BANK2   BANK3   BANK4   BANK5   BANK6   BANK7   BANK8   BANK9  BANK10  BANK1
      +1  BANK12  BANK13  BANK14
  2926 ;;      Params:         0       6       0       0       0       0       0       0       0       0       0       0       
      +0       0       0       0
  2927 ;;      Locals:         0       0       5       0       0       0       0       0       0       0       0       0       
      +0       0       0       0
  2928 ;;      Temps:          0       1       0       0       0       0       0       0       0       0       0       0       
      +0       0       0       0
  2929 ;;      Totals:         0       7       5       0       0       0       0       0       0       0       0       0       
      +0       0       0       0
  2930 ;;Total ram usage:       12 bytes
  2931 ;; Hardware stack levels used:    1
  2932 ;; Hardware stack levels required when called:   11
  2933 ;; This function calls:
  2934 ;;		_memcpy
  2935 ;; This function is called by:
  2936 ;;		_FromMainLow_sendmsg
  2937 ;;		_FromMainHigh_sendmsg
  2938 ;; This function uses a non-reentrant model
  2939 ;;
  2940                           
  2941                           	psect	text10
  2942  000DF4                     __ptext10:
  2943                           	opt stack 0
  2944  000DF4                     _send_msg:
  2945                           	opt stack 16
  2946                           
  2947                           ;messages.c: 26: unsigned char slot;
  2948                           ;messages.c: 28: msg *qmsg;
  2949                           ;messages.c: 29: size_t tlength = length;
  2950                           
  2951                           ;incstack = 0
  2952  000DF4  0100               	movlb	0	; () banked
  2953  000DF6  0101               	movlb	1	; () banked
  2954  000DF8  C09E  F18A         	movff	send_msg@length,send_msg@tlength
  2955  000DFC  0101               	movlb	1	; () banked
  2956  000DFE  6B8B               	clrf	(send_msg@tlength+1)& (0+255),b
  2957                           
  2958                           ; BSR set to: 1
  2959                           ;messages.c: 39: slot = qptr->cur_write_ind;
  2960  000E00  0100               	movlb	0	; () banked
  2961  000E02  EE20 F088          	lfsr	2,136
  2962  000E06  0100               	movlb	0	; () banked
  2963  000E08  519C               	movf	send_msg@qptr& (0+255),w,b
  2964  000E0A  26D9               	addwf	fsr2l,f,c
  2965  000E0C  0100               	movlb	0	; () banked
  2966  000E0E  519D               	movf	(send_msg@qptr+1)& (0+255),w,b
  2967  000E10  22DA               	addwfc	fsr2h,f,c
  2968  000E12  50DF               	movf	indf2,w,c
  2969  000E14  0101               	movlb	1	; () banked
  2970  000E16  6F8C               	movwf	send_msg@slot& (0+255),b
  2971                           
  2972                           ; BSR set to: 1
  2973                           ;messages.c: 40: qmsg = &(qptr->queue[slot]);
  2974  000E18  0101               	movlb	1	; () banked
  2975  000E1A  518C               	movf	send_msg@slot& (0+255),w,b
  2976  000E1C  0D11               	mullw	17
  2977  000E1E  50F3               	movf	prodl,w,c
  2978  000E20  0100               	movlb	0	; () banked
  2979  000E22  259C               	addwf	send_msg@qptr& (0+255),w,b
  2980  000E24  0101               	movlb	1	; () banked
  2981  000E26  6F8D               	movwf	send_msg@qmsg& (0+255),b
  2982  000E28  50F4               	movf	prodh,w,c
  2983  000E2A  0100               	movlb	0	; () banked
  2984  000E2C  219D               	addwfc	(send_msg@qptr+1)& (0+255),w,b
  2985  000E2E  0101               	movlb	1	; () banked
  2986  000E30  6F8E               	movwf	(send_msg@qmsg+1)& (0+255),b
  2987                           
  2988                           ; BSR set to: 1
  2989                           ;messages.c: 42: if (qmsg->full != 0) {
  2990  000E32  C18D  FFD9         	movff	send_msg@qmsg,fsr2l
  2991  000E36  C18E  FFDA         	movff	send_msg@qmsg+1,fsr2h
  2992  000E3A  50DF               	movf	indf2,w,c
  2993  000E3C  B4D8               	btfsc	status,2,c
  2994  000E3E  D002               	goto	l3423
  2995                           
  2996                           ; BSR set to: 1
  2997                           ;messages.c: 43: return (-1);
  2998  000E40  0EFF               	movlw	255
  2999  000E42  0012               	return	
  3000  000E44                     l3423:
  3001                           
  3002                           ; BSR set to: 1
  3003                           ;messages.c: 44: }
  3004                           ;messages.c: 47: qmsg->length = length;
  3005  000E44  0101               	movlb	1	; () banked
  3006  000E46  EE20 F001          	lfsr	2,1
  3007  000E4A  0101               	movlb	1	; () banked
  3008  000E4C  518D               	movf	send_msg@qmsg& (0+255),w,b
  3009  000E4E  26D9               	addwf	fsr2l,f,c
  3010  000E50  0101               	movlb	1	; () banked
  3011  000E52  518E               	movf	(send_msg@qmsg+1)& (0+255),w,b
  3012  000E54  22DA               	addwfc	fsr2h,f,c
  3013  000E56  0100               	movlb	0	; () banked
  3014  000E58  C09E  FFDF         	movff	send_msg@length,indf2
  3015                           
  3016                           ;messages.c: 48: qmsg->msgtype = msgtype;
  3017  000E5C  0101               	movlb	1	; () banked
  3018  000E5E  EE20 F002          	lfsr	2,2
  3019  000E62  0101               	movlb	1	; () banked
  3020  000E64  518D               	movf	send_msg@qmsg& (0+255),w,b
  3021  000E66  26D9               	addwf	fsr2l,f,c
  3022  000E68  0101               	movlb	1	; () banked
  3023  000E6A  518E               	movf	(send_msg@qmsg+1)& (0+255),w,b
  3024  000E6C  22DA               	addwfc	fsr2h,f,c
  3025  000E6E  0100               	movlb	0	; () banked
  3026  000E70  C09F  FFDF         	movff	send_msg@msgtype,indf2
  3027                           
  3028                           ; BSR set to: 0
  3029                           ;messages.c: 56: memcpy(qmsg->data, data, tlength);
  3030  000E74  0E03               	movlw	3
  3031  000E76  0101               	movlb	1	; () banked
  3032  000E78  258D               	addwf	send_msg@qmsg& (0+255),w,b
  3033  000E7A  0100               	movlb	0	; () banked
  3034  000E7C  6F92               	movwf	memcpy@d1& (0+255),b
  3035  000E7E  0E00               	movlw	0
  3036  000E80  0101               	movlb	1	; () banked
  3037  000E82  218E               	addwfc	(send_msg@qmsg+1)& (0+255),w,b
  3038  000E84  0100               	movlb	0	; () banked
  3039  000E86  6F93               	movwf	(memcpy@d1+1)& (0+255),b
  3040  000E88  0100               	movlb	0	; () banked
  3041  000E8A  C0A1  F095         	movff	send_msg@data+1,memcpy@s1+1
  3042  000E8E  0100               	movlb	0	; () banked
  3043  000E90  C0A0  F094         	movff	send_msg@data,memcpy@s1
  3044  000E94  C18A  F096         	movff	send_msg@tlength,memcpy@n
  3045  000E98  C18B  F097         	movff	send_msg@tlength+1,memcpy@n+1
  3046  000E9C  EC6D  F00B         	call	_memcpy	;wreg free
  3047                           
  3048                           ;messages.c: 57: qptr->cur_write_ind = (qptr->cur_write_ind + 1) % 8;
  3049  000EA0  0100               	movlb	0	; () banked
  3050  000EA2  EE20 F088          	lfsr	2,136
  3051  000EA6  0100               	movlb	0	; () banked
  3052  000EA8  519C               	movf	send_msg@qptr& (0+255),w,b
  3053  000EAA  26D9               	addwf	fsr2l,f,c
  3054  000EAC  0100               	movlb	0	; () banked
  3055  000EAE  519D               	movf	(send_msg@qptr+1)& (0+255),w,b
  3056  000EB0  22DA               	addwfc	fsr2h,f,c
  3057  000EB2  0100               	movlb	0	; () banked
  3058  000EB4  EE10 F088          	lfsr	1,136
  3059  000EB8  0100               	movlb	0	; () banked
  3060  000EBA  519C               	movf	send_msg@qptr& (0+255),w,b
  3061  000EBC  26E1               	addwf	fsr1l,f,c
  3062  000EBE  0100               	movlb	0	; () banked
  3063  000EC0  519D               	movf	(send_msg@qptr+1)& (0+255),w,b
  3064  000EC2  22E2               	addwfc	fsr1h,f,c
  3065  000EC4  50E7               	movf	indf1,w,c
  3066  000EC6  0100               	movlb	0	; () banked
  3067  000EC8  6FA2               	movwf	??_send_msg& (0+255),b
  3068  000ECA  0100               	movlb	0	; () banked
  3069  000ECC  29A2               	incf	??_send_msg& (0+255),w,b
  3070  000ECE  0B07               	andlw	7
  3071  000ED0  6EDF               	movwf	indf2,c
  3072                           
  3073                           ; BSR set to: 0
  3074                           ;messages.c: 60: qmsg->full = 1;
  3075  000ED2  C18D  FFD9         	movff	send_msg@qmsg,fsr2l
  3076  000ED6  C18E  FFDA         	movff	send_msg@qmsg+1,fsr2h
  3077  000EDA  0E01               	movlw	1
  3078  000EDC  6EDF               	movwf	indf2,c
  3079                           
  3080                           ; BSR set to: 0
  3081                           ;messages.c: 61: return (1);
  3082  000EDE  0E01               	movlw	1
  3083  000EE0  0012               	return	
  3084  000EE2                     __end_of_send_msg:
  3085                           	opt stack 0
  3086                           tblptru	equ	0xFF8
  3087                           tblptrh	equ	0xFF7
  3088                           tblptrl	equ	0xFF6
  3089                           tablat	equ	0xFF5
  3090                           prodh	equ	0xFF4
  3091                           prodl	equ	0xFF3
  3092                           postinc0	equ	0xFEE
  3093                           wreg	equ	0xFE8
  3094                           indf1	equ	0xFE7
  3095                           fsr1h	equ	0xFE2
  3096                           fsr1l	equ	0xFE1
  3097                           indf2	equ	0xFDF
  3098                           postinc2	equ	0xFDE
  3099                           postdec2	equ	0xFDD
  3100                           fsr2h	equ	0xFDA
  3101                           fsr2l	equ	0xFD9
  3102                           status	equ	0xFD8
  3103                           
  3104 ;; *************** function _init_timer1_lthread *****************
  3105 ;; Defined at:
  3106 ;;		line 9 in file "../src/timer1_thread.c"
  3107 ;; Parameters:    Size  Location     Type
  3108 ;;  tptr            2   50[BANK0 ] PTR struct __timer1_thre
  3109 ;;		 -> main@t1thread_data(17), 
  3110 ;; Auto vars:     Size  Location     Type
  3111 ;;		None
  3112 ;; Return value:  Size  Location     Type
  3113 ;;		None               void
  3114 ;; Registers used:
  3115 ;;		wreg, fsr2l, fsr2h, status,2, status,0
  3116 ;; Tracked objects:
  3117 ;;		On entry : 0/0
  3118 ;;		On exit  : 0/0
  3119 ;;		Unchanged: 0/0
  3120 ;; Data sizes:     COMRAM   BANK0   BANK1   BANK2   BANK3   BANK4   BANK5   BANK6   BANK7   BANK8   BANK9  BANK10  BANK1
      +1  BANK12  BANK13  BANK14
  3121 ;;      Params:         0       2       0       0       0       0       0       0       0       0       0       0       
      +0       0       0       0
  3122 ;;      Locals:         0       0       0       0       0       0       0       0       0       0       0       0       
      +0       0       0       0
  3123 ;;      Temps:          0       0       0       0       0       0       0       0       0       0       0       0       
      +0       0       0       0
  3124 ;;      Totals:         0       2       0       0       0       0       0       0       0       0       0       0       
      +0       0       0       0
  3125 ;;Total ram usage:        2 bytes
  3126 ;; Hardware stack levels used:    1
  3127 ;; Hardware stack levels required when called:   10
  3128 ;; This function calls:
  3129 ;;		Nothing
  3130 ;; This function is called by:
  3131 ;;		_main
  3132 ;; This function uses a non-reentrant model
  3133 ;;
  3134                           
  3135                           	psect	text11
  3136  001B60                     __ptext11:
  3137                           	opt stack 0
  3138  001B60                     _init_timer1_lthread:
  3139                           	opt stack 20
  3140                           
  3141                           ;timer1_thread.c: 10: tptr->msgcount = 0;
  3142                           
  3143                           ;incstack = 0
  3144  001B60  0100               	movlb	0	; () banked
  3145  001B62  EE20 F00F          	lfsr	2,15
  3146  001B66  0100               	movlb	0	; () banked
  3147  001B68  5192               	movf	init_timer1_lthread@tptr& (0+255),w,b
  3148  001B6A  26D9               	addwf	fsr2l,f,c
  3149  001B6C  0100               	movlb	0	; () banked
  3150  001B6E  5193               	movf	(init_timer1_lthread@tptr+1)& (0+255),w,b
  3151  001B70  22DA               	addwfc	fsr2h,f,c
  3152  001B72  0E00               	movlw	0
  3153  001B74  6EDE               	movwf	postinc2,c
  3154  001B76  0E00               	movlw	0
  3155  001B78  6EDD               	movwf	postdec2,c
  3156                           
  3157                           ; BSR set to: 0
  3158  001B7A  0012               	return	
  3159  001B7C                     __end_of_init_timer1_lthread:
  3160                           	opt stack 0
  3161                           tblptru	equ	0xFF8
  3162                           tblptrh	equ	0xFF7
  3163                           tblptrl	equ	0xFF6
  3164                           tablat	equ	0xFF5
  3165                           prodh	equ	0xFF4
  3166                           prodl	equ	0xFF3
  3167                           postinc0	equ	0xFEE
  3168                           wreg	equ	0xFE8
  3169                           indf1	equ	0xFE7
  3170                           fsr1h	equ	0xFE2
  3171                           fsr1l	equ	0xFE1
  3172                           indf2	equ	0xFDF
  3173                           postinc2	equ	0xFDE
  3174                           postdec2	equ	0xFDD
  3175                           fsr2h	equ	0xFDA
  3176                           fsr2l	equ	0xFD9
  3177                           status	equ	0xFD8
  3178                           
  3179 ;; *************** function _init_queues *****************
  3180 ;; Defined at:
  3181 ;;		line 195 in file "../src/messages.c"
  3182 ;; Parameters:    Size  Location     Type
  3183 ;;		None
  3184 ;; Auto vars:     Size  Location     Type
  3185 ;;		None
  3186 ;; Return value:  Size  Location     Type
  3187 ;;		None               void
  3188 ;; Registers used:
  3189 ;;		wreg, fsr2l, fsr2h, status,2, status,0, prodl, prodh, cstack
  3190 ;; Tracked objects:
  3191 ;;		On entry : 0/0
  3192 ;;		On exit  : 0/0
  3193 ;;		Unchanged: 0/0
  3194 ;; Data sizes:     COMRAM   BANK0   BANK1   BANK2   BANK3   BANK4   BANK5   BANK6   BANK7   BANK8   BANK9  BANK10  BANK1
      +1  BANK12  BANK13  BANK14
  3195 ;;      Params:         0       0       0       0       0       0       0       0       0       0       0       0       
      +0       0       0       0
  3196 ;;      Locals:         0       0       0       0       0       0       0       0       0       0       0       0       
      +0       0       0       0
  3197 ;;      Temps:          0       0       0       0       0       0       0       0       0       0       0       0       
      +0       0       0       0
  3198 ;;      Totals:         0       0       0       0       0       0       0       0       0       0       0       0       
      +0       0       0       0
  3199 ;;Total ram usage:        0 bytes
  3200 ;; Hardware stack levels used:    1
  3201 ;; Hardware stack levels required when called:   11
  3202 ;; This function calls:
  3203 ;;		_init_queue
  3204 ;; This function is called by:
  3205 ;;		_main
  3206 ;; This function uses a non-reentrant model
  3207 ;;
  3208                           
  3209                           	psect	text12
  3210  001682                     __ptext12:
  3211                           	opt stack 0
  3212  001682                     _init_queues:
  3213                           	opt stack 19
  3214                           
  3215                           ;messages.c: 196: MQ_Main_Willing_to_block = 0;
  3216                           
  3217                           ; BSR set to: 0
  3218                           ;incstack = 0
  3219  001682  0E00               	movlw	0
  3220  001684  0100               	movlb	0	; () banked
  3221  001686  6FB8               	movwf	_MQ_Main_Willing_to_block& (0+255),b
  3222                           
  3223                           ; BSR set to: 0
  3224                           ;messages.c: 197: init_queue(&ToMainLow_MQ);
  3225  001688  0101               	movlb	1	; () banked
  3226  00168A  0E01               	movlw	high _ToMainLow_MQ
  3227  00168C  0100               	movlb	0	; () banked
  3228  00168E  6F93               	movwf	(init_queue@qptr+1)& (0+255),b
  3229  001690  0101               	movlb	1	; () banked
  3230  001692  0E00               	movlw	low _ToMainLow_MQ
  3231  001694  0100               	movlb	0	; () banked
  3232  001696  6F92               	movwf	init_queue@qptr& (0+255),b
  3233  001698  EC4E  F00A         	call	_init_queue	;wreg free
  3234                           
  3235                           ;messages.c: 198: init_queue(&ToMainHigh_MQ);
  3236  00169C  0102               	movlb	2	; () banked
  3237  00169E  0E02               	movlw	high _ToMainHigh_MQ
  3238  0016A0  0100               	movlb	0	; () banked
  3239  0016A2  6F93               	movwf	(init_queue@qptr+1)& (0+255),b
  3240  0016A4  0102               	movlb	2	; () banked
  3241  0016A6  0E00               	movlw	low _ToMainHigh_MQ
  3242  0016A8  0100               	movlb	0	; () banked
  3243  0016AA  6F92               	movwf	init_queue@qptr& (0+255),b
  3244  0016AC  EC4E  F00A         	call	_init_queue	;wreg free
  3245                           
  3246                           ;messages.c: 199: init_queue(&FromMainLow_MQ);
  3247  0016B0  0103               	movlb	3	; () banked
  3248  0016B2  0E03               	movlw	high _FromMainLow_MQ
  3249  0016B4  0100               	movlb	0	; () banked
  3250  0016B6  6F93               	movwf	(init_queue@qptr+1)& (0+255),b
  3251  0016B8  0103               	movlb	3	; () banked
  3252  0016BA  0E00               	movlw	low _FromMainLow_MQ
  3253  0016BC  0100               	movlb	0	; () banked
  3254  0016BE  6F92               	movwf	init_queue@qptr& (0+255),b
  3255  0016C0  EC4E  F00A         	call	_init_queue	;wreg free
  3256                           
  3257                           ;messages.c: 200: init_queue(&FromMainHigh_MQ);
  3258  0016C4  0104               	movlb	4	; () banked
  3259  0016C6  0E04               	movlw	high _FromMainHigh_MQ
  3260  0016C8  0100               	movlb	0	; () banked
  3261  0016CA  6F93               	movwf	(init_queue@qptr+1)& (0+255),b
  3262  0016CC  0104               	movlb	4	; () banked
  3263  0016CE  0E00               	movlw	low _FromMainHigh_MQ
  3264  0016D0  0100               	movlb	0	; () banked
  3265  0016D2  6F92               	movwf	init_queue@qptr& (0+255),b
  3266  0016D4  EC4E  F00A         	call	_init_queue	;wreg free
  3267  0016D8  0012               	return	
  3268  0016DA                     __end_of_init_queues:
  3269                           	opt stack 0
  3270                           tblptru	equ	0xFF8
  3271                           tblptrh	equ	0xFF7
  3272                           tblptrl	equ	0xFF6
  3273                           tablat	equ	0xFF5
  3274                           prodh	equ	0xFF4
  3275                           prodl	equ	0xFF3
  3276                           postinc0	equ	0xFEE
  3277                           wreg	equ	0xFE8
  3278                           indf1	equ	0xFE7
  3279                           fsr1h	equ	0xFE2
  3280                           fsr1l	equ	0xFE1
  3281                           indf2	equ	0xFDF
  3282                           postinc2	equ	0xFDE
  3283                           postdec2	equ	0xFDD
  3284                           fsr2h	equ	0xFDA
  3285                           fsr2l	equ	0xFD9
  3286                           status	equ	0xFD8
  3287                           
  3288 ;; *************** function _init_queue *****************
  3289 ;; Defined at:
  3290 ;;		line 15 in file "../src/messages.c"
  3291 ;; Parameters:    Size  Location     Type
  3292 ;;  qptr            2   50[BANK0 ] PTR struct __msg_queue
  3293 ;;		 -> FromMainHigh_MQ(138), FromMainLow_MQ(138), ToMainHigh_MQ(138), ToMainLow_MQ(138), 
  3294 ;; Auto vars:     Size  Location     Type
  3295 ;;  i               1   52[BANK0 ] unsigned char 
  3296 ;; Return value:  Size  Location     Type
  3297 ;;		None               void
  3298 ;; Registers used:
  3299 ;;		wreg, fsr2l, fsr2h, status,2, status,0, prodl, prodh
  3300 ;; Tracked objects:
  3301 ;;		On entry : 0/0
  3302 ;;		On exit  : 0/0
  3303 ;;		Unchanged: 0/0
  3304 ;; Data sizes:     COMRAM   BANK0   BANK1   BANK2   BANK3   BANK4   BANK5   BANK6   BANK7   BANK8   BANK9  BANK10  BANK1
      +1  BANK12  BANK13  BANK14
  3305 ;;      Params:         0       2       0       0       0       0       0       0       0       0       0       0       
      +0       0       0       0
  3306 ;;      Locals:         0       1       0       0       0       0       0       0       0       0       0       0       
      +0       0       0       0
  3307 ;;      Temps:          0       0       0       0       0       0       0       0       0       0       0       0       
      +0       0       0       0
  3308 ;;      Totals:         0       3       0       0       0       0       0       0       0       0       0       0       
      +0       0       0       0
  3309 ;;Total ram usage:        3 bytes
  3310 ;; Hardware stack levels used:    1
  3311 ;; Hardware stack levels required when called:   10
  3312 ;; This function calls:
  3313 ;;		Nothing
  3314 ;; This function is called by:
  3315 ;;		_init_queues
  3316 ;; This function uses a non-reentrant model
  3317 ;;
  3318                           
  3319                           	psect	text13
  3320  00149C                     __ptext13:
  3321                           	opt stack 0
  3322  00149C                     _init_queue:
  3323                           	opt stack 19
  3324                           
  3325                           ;messages.c: 16: unsigned char i;
  3326                           ;messages.c: 18: qptr->cur_write_ind = 0;
  3327                           
  3328                           ;incstack = 0
  3329  00149C  0100               	movlb	0	; () banked
  3330  00149E  EE20 F088          	lfsr	2,136
  3331  0014A2  0100               	movlb	0	; () banked
  3332  0014A4  5192               	movf	init_queue@qptr& (0+255),w,b
  3333  0014A6  26D9               	addwf	fsr2l,f,c
  3334  0014A8  0100               	movlb	0	; () banked
  3335  0014AA  5193               	movf	(init_queue@qptr+1)& (0+255),w,b
  3336  0014AC  22DA               	addwfc	fsr2h,f,c
  3337  0014AE  0E00               	movlw	0
  3338  0014B0  6EDF               	movwf	indf2,c
  3339                           
  3340                           ;messages.c: 19: qptr->cur_read_ind = 0;
  3341  0014B2  0100               	movlb	0	; () banked
  3342  0014B4  EE20 F089          	lfsr	2,137
  3343  0014B8  0100               	movlb	0	; () banked
  3344  0014BA  5192               	movf	init_queue@qptr& (0+255),w,b
  3345  0014BC  26D9               	addwf	fsr2l,f,c
  3346  0014BE  0100               	movlb	0	; () banked
  3347  0014C0  5193               	movf	(init_queue@qptr+1)& (0+255),w,b
  3348  0014C2  22DA               	addwfc	fsr2h,f,c
  3349  0014C4  0E00               	movlw	0
  3350  0014C6  6EDF               	movwf	indf2,c
  3351                           
  3352                           ; BSR set to: 0
  3353                           ;messages.c: 20: for (i = 0; i < 8; i++) {
  3354  0014C8  0E00               	movlw	0
  3355  0014CA  0100               	movlb	0	; () banked
  3356  0014CC  6F94               	movwf	init_queue@i& (0+255),b
  3357                           
  3358                           ; BSR set to: 0
  3359  0014CE  0E07               	movlw	7
  3360  0014D0  0100               	movlb	0	; () banked
  3361  0014D2  6594               	cpfsgt	init_queue@i& (0+255),b
  3362  0014D4  D001               	goto	l3613
  3363  0014D6  0012               	return	
  3364  0014D8                     l3613:
  3365                           
  3366                           ; BSR set to: 0
  3367                           ;messages.c: 21: qptr->queue[i].full = 0;
  3368  0014D8  0100               	movlb	0	; () banked
  3369  0014DA  5194               	movf	init_queue@i& (0+255),w,b
  3370  0014DC  0D11               	mullw	17
  3371  0014DE  50F3               	movf	prodl,w,c
  3372  0014E0  0100               	movlb	0	; () banked
  3373  0014E2  2592               	addwf	init_queue@qptr& (0+255),w,b
  3374  0014E4  6ED9               	movwf	fsr2l,c
  3375  0014E6  50F4               	movf	prodh,w,c
  3376  0014E8  0100               	movlb	0	; () banked
  3377  0014EA  2193               	addwfc	(init_queue@qptr+1)& (0+255),w,b
  3378  0014EC  6EDA               	movwf	fsr2h,c
  3379  0014EE  0E00               	movlw	0
  3380  0014F0  6EDF               	movwf	indf2,c
  3381                           
  3382                           ; BSR set to: 0
  3383  0014F2  0100               	movlb	0	; () banked
  3384  0014F4  2B94               	incf	init_queue@i& (0+255),f,b
  3385                           
  3386                           ; BSR set to: 0
  3387  0014F6  0E07               	movlw	7
  3388  0014F8  0100               	movlb	0	; () banked
  3389  0014FA  6594               	cpfsgt	init_queue@i& (0+255),b
  3390  0014FC  D7ED               	goto	l3613
  3391  0014FE  0012               	return	
  3392  001500                     __end_of_init_queue:
  3393                           	opt stack 0
  3394                           tblptru	equ	0xFF8
  3395                           tblptrh	equ	0xFF7
  3396                           tblptrl	equ	0xFF6
  3397                           tablat	equ	0xFF5
  3398                           prodh	equ	0xFF4
  3399                           prodl	equ	0xFF3
  3400                           postinc0	equ	0xFEE
  3401                           wreg	equ	0xFE8
  3402                           indf1	equ	0xFE7
  3403                           fsr1h	equ	0xFE2
  3404                           fsr1l	equ	0xFE1
  3405                           indf2	equ	0xFDF
  3406                           postinc2	equ	0xFDE
  3407                           postdec2	equ	0xFDD
  3408                           fsr2h	equ	0xFDA
  3409                           fsr2l	equ	0xFD9
  3410                           status	equ	0xFD8
  3411                           
  3412 ;; *************** function _init_i2c *****************
  3413 ;; Defined at:
  3414 ;;		line 356 in file "../src/my_i2c.c"
  3415 ;; Parameters:    Size  Location     Type
  3416 ;;  ic              2   50[BANK0 ] PTR struct __i2c_comm
  3417 ;;		 -> main@ic(38), 
  3418 ;; Auto vars:     Size  Location     Type
  3419 ;;		None
  3420 ;; Return value:  Size  Location     Type
  3421 ;;		None               void
  3422 ;; Registers used:
  3423 ;;		wreg, fsr2l, fsr2h, status,2, status,0
  3424 ;; Tracked objects:
  3425 ;;		On entry : 0/0
  3426 ;;		On exit  : 0/0
  3427 ;;		Unchanged: 0/0
  3428 ;; Data sizes:     COMRAM   BANK0   BANK1   BANK2   BANK3   BANK4   BANK5   BANK6   BANK7   BANK8   BANK9  BANK10  BANK1
      +1  BANK12  BANK13  BANK14
  3429 ;;      Params:         0       2       0       0       0       0       0       0       0       0       0       0       
      +0       0       0       0
  3430 ;;      Locals:         0       0       0       0       0       0       0       0       0       0       0       0       
      +0       0       0       0
  3431 ;;      Temps:          0       0       0       0       0       0       0       0       0       0       0       0       
      +0       0       0       0
  3432 ;;      Totals:         0       2       0       0       0       0       0       0       0       0       0       0       
      +0       0       0       0
  3433 ;;Total ram usage:        2 bytes
  3434 ;; Hardware stack levels used:    1
  3435 ;; Hardware stack levels required when called:   10
  3436 ;; This function calls:
  3437 ;;		Nothing
  3438 ;; This function is called by:
  3439 ;;		_main
  3440 ;; This function uses a non-reentrant model
  3441 ;;
  3442                           
  3443                           	psect	text14
  3444  00134E                     __ptext14:
  3445                           	opt stack 0
  3446  00134E                     _init_i2c:
  3447                           	opt stack 20
  3448                           
  3449                           ;my_i2c.c: 357: ic_ptr = ic;
  3450                           
  3451                           ; BSR set to: 0
  3452                           ;incstack = 0
  3453  00134E  0100               	movlb	0	; () banked
  3454  001350  C093  F0CD         	movff	init_i2c@ic+1,_ic_ptr+1
  3455  001354  0100               	movlb	0	; () banked
  3456  001356  C092  F0CC         	movff	init_i2c@ic,_ic_ptr
  3457                           
  3458                           ; BSR set to: 0
  3459                           ;my_i2c.c: 358: ic_ptr->buflen = 0;
  3460  00135A  0100               	movlb	0	; () banked
  3461  00135C  EE20 F00E          	lfsr	2,14
  3462  001360  0100               	movlb	0	; () banked
  3463  001362  51CC               	movf	_ic_ptr& (0+255),w,b
  3464  001364  26D9               	addwf	fsr2l,f,c
  3465  001366  0100               	movlb	0	; () banked
  3466  001368  51CD               	movf	(_ic_ptr+1)& (0+255),w,b
  3467  00136A  22DA               	addwfc	fsr2h,f,c
  3468  00136C  0E00               	movlw	0
  3469  00136E  6EDF               	movwf	indf2,c
  3470                           
  3471                           ; BSR set to: 0
  3472                           ;my_i2c.c: 359: ic_ptr->outbuflen = 0;
  3473  001370  0100               	movlb	0	; () banked
  3474  001372  EE20 F01F          	lfsr	2,31
  3475  001376  0100               	movlb	0	; () banked
  3476  001378  51CC               	movf	_ic_ptr& (0+255),w,b
  3477  00137A  26D9               	addwf	fsr2l,f,c
  3478  00137C  0100               	movlb	0	; () banked
  3479  00137E  51CD               	movf	(_ic_ptr+1)& (0+255),w,b
  3480  001380  22DA               	addwfc	fsr2h,f,c
  3481  001382  0E00               	movlw	0
  3482  001384  6EDF               	movwf	indf2,c
  3483                           
  3484                           ; BSR set to: 0
  3485                           ;my_i2c.c: 360: ic_ptr->event_count = 0;
  3486  001386  0100               	movlb	0	; () banked
  3487  001388  EE20 F020          	lfsr	2,32
  3488  00138C  0100               	movlb	0	; () banked
  3489  00138E  51CC               	movf	_ic_ptr& (0+255),w,b
  3490  001390  26D9               	addwf	fsr2l,f,c
  3491  001392  0100               	movlb	0	; () banked
  3492  001394  51CD               	movf	(_ic_ptr+1)& (0+255),w,b
  3493  001396  22DA               	addwfc	fsr2h,f,c
  3494  001398  0E00               	movlw	0
  3495  00139A  6EDF               	movwf	indf2,c
  3496                           
  3497                           ; BSR set to: 0
  3498                           ;my_i2c.c: 361: ic_ptr->status = 0x5;
  3499  00139C  0100               	movlb	0	; () banked
  3500  00139E  EE20 F021          	lfsr	2,33
  3501  0013A2  0100               	movlb	0	; () banked
  3502  0013A4  51CC               	movf	_ic_ptr& (0+255),w,b
  3503  0013A6  26D9               	addwf	fsr2l,f,c
  3504  0013A8  0100               	movlb	0	; () banked
  3505  0013AA  51CD               	movf	(_ic_ptr+1)& (0+255),w,b
  3506  0013AC  22DA               	addwfc	fsr2h,f,c
  3507  0013AE  0E05               	movlw	5
  3508  0013B0  6EDF               	movwf	indf2,c
  3509                           
  3510                           ; BSR set to: 0
  3511                           ;my_i2c.c: 362: ic_ptr->error_count = 0;
  3512  0013B2  0100               	movlb	0	; () banked
  3513  0013B4  EE20 F023          	lfsr	2,35
  3514  0013B8  0100               	movlb	0	; () banked
  3515  0013BA  51CC               	movf	_ic_ptr& (0+255),w,b
  3516  0013BC  26D9               	addwf	fsr2l,f,c
  3517  0013BE  0100               	movlb	0	; () banked
  3518  0013C0  51CD               	movf	(_ic_ptr+1)& (0+255),w,b
  3519  0013C2  22DA               	addwfc	fsr2h,f,c
  3520  0013C4  0E00               	movlw	0
  3521  0013C6  6EDF               	movwf	indf2,c
  3522                           
  3523                           ; BSR set to: 0
  3524  0013C8  0012               	return	
  3525  0013CA                     __end_of_init_i2c:
  3526                           	opt stack 0
  3527                           tblptru	equ	0xFF8
  3528                           tblptrh	equ	0xFF7
  3529                           tblptrl	equ	0xFF6
  3530                           tablat	equ	0xFF5
  3531                           prodh	equ	0xFF4
  3532                           prodl	equ	0xFF3
  3533                           postinc0	equ	0xFEE
  3534                           wreg	equ	0xFE8
  3535                           indf1	equ	0xFE7
  3536                           fsr1h	equ	0xFE2
  3537                           fsr1l	equ	0xFE1
  3538                           indf2	equ	0xFDF
  3539                           postinc2	equ	0xFDE
  3540                           postdec2	equ	0xFDD
  3541                           fsr2h	equ	0xFDA
  3542                           fsr2l	equ	0xFD9
  3543                           status	equ	0xFD8
  3544                           
  3545 ;; *************** function _i2c_configure_master *****************
  3546 ;; Defined at:
  3547 ;;		line 14 in file "../src/my_i2c.c"
  3548 ;; Parameters:    Size  Location     Type
  3549 ;;  slave_addr      1    wreg     unsigned char 
  3550 ;; Auto vars:     Size  Location     Type
  3551 ;;  slave_addr      1   50[BANK0 ] unsigned char 
  3552 ;; Return value:  Size  Location     Type
  3553 ;;		None               void
  3554 ;; Registers used:
  3555 ;;		wreg, fsr2l, fsr2h, status,2, status,0
  3556 ;; Tracked objects:
  3557 ;;		On entry : 0/0
  3558 ;;		On exit  : 0/0
  3559 ;;		Unchanged: 0/0
  3560 ;; Data sizes:     COMRAM   BANK0   BANK1   BANK2   BANK3   BANK4   BANK5   BANK6   BANK7   BANK8   BANK9  BANK10  BANK1
      +1  BANK12  BANK13  BANK14
  3561 ;;      Params:         0       0       0       0       0       0       0       0       0       0       0       0       
      +0       0       0       0
  3562 ;;      Locals:         0       1       0       0       0       0       0       0       0       0       0       0       
      +0       0       0       0
  3563 ;;      Temps:          0       0       0       0       0       0       0       0       0       0       0       0       
      +0       0       0       0
  3564 ;;      Totals:         0       1       0       0       0       0       0       0       0       0       0       0       
      +0       0       0       0
  3565 ;;Total ram usage:        1 bytes
  3566 ;; Hardware stack levels used:    1
  3567 ;; Hardware stack levels required when called:   10
  3568 ;; This function calls:
  3569 ;;		Nothing
  3570 ;; This function is called by:
  3571 ;;		_main
  3572 ;; This function uses a non-reentrant model
  3573 ;;
  3574                           
  3575                           	psect	text15
  3576  0015C2                     __ptext15:
  3577                           	opt stack 0
  3578  0015C2                     _i2c_configure_master:
  3579                           	opt stack 20
  3580                           
  3581                           ; BSR set to: 0
  3582                           ;incstack = 0
  3583                           ;i2c_configure_master@slave_addr stored from wreg
  3584  0015C2  0100               	movlb	0	; () banked
  3585  0015C4  6F92               	movwf	i2c_configure_master@slave_addr& (0+255),b
  3586                           
  3587                           ; BSR set to: 0
  3588                           ;my_i2c.c: 17: SSP1CON1bits.SSPM = 0x8;
  3589  0015C6  50C6               	movf	4038,w,c	;volatile
  3590  0015C8  0BF0               	andlw	-16
  3591  0015CA  0908               	iorlw	8
  3592  0015CC  6EC6               	movwf	4038,c	;volatile
  3593                           
  3594                           ; BSR set to: 0
  3595                           ;my_i2c.c: 19: SSP1STATbits.SMP = 1;
  3596  0015CE  8EC7               	bsf	4039,7,c	;volatile
  3597                           
  3598                           ; BSR set to: 0
  3599                           ;my_i2c.c: 20: SSP1STATbits.CKE = 0;
  3600  0015D0  9CC7               	bcf	4039,6,c	;volatile
  3601                           
  3602                           ;my_i2c.c: 22: SSP1ADD = 0x77;
  3603  0015D2  0E77               	movlw	119
  3604  0015D4  6EC8               	movwf	4040,c	;volatile
  3605                           
  3606                           ; BSR set to: 0
  3607                           ;my_i2c.c: 24: TRISBbits.TRISB4 = 1;
  3608  0015D6  8893               	bsf	3987,4,c	;volatile
  3609                           
  3610                           ; BSR set to: 0
  3611                           ;my_i2c.c: 25: TRISBbits.TRISB5 = 1;
  3612  0015D8  8A93               	bsf	3987,5,c	;volatile
  3613                           
  3614                           ; BSR set to: 0
  3615                           ;my_i2c.c: 27: ic_ptr->slave_addr = slave_addr;
  3616  0015DA  0100               	movlb	0	; () banked
  3617  0015DC  EE20 F025          	lfsr	2,37
  3618  0015E0  0100               	movlb	0	; () banked
  3619  0015E2  51CC               	movf	_ic_ptr& (0+255),w,b
  3620  0015E4  26D9               	addwf	fsr2l,f,c
  3621  0015E6  0100               	movlb	0	; () banked
  3622  0015E8  51CD               	movf	(_ic_ptr+1)& (0+255),w,b
  3623  0015EA  22DA               	addwfc	fsr2h,f,c
  3624  0015EC  0100               	movlb	0	; () banked
  3625  0015EE  C092  FFDF         	movff	i2c_configure_master@slave_addr,indf2
  3626                           
  3627                           ; BSR set to: 0
  3628                           ;my_i2c.c: 28: ic_ptr->outbuflen = 14;
  3629  0015F2  0100               	movlb	0	; () banked
  3630  0015F4  EE20 F01F          	lfsr	2,31
  3631  0015F8  0100               	movlb	0	; () banked
  3632  0015FA  51CC               	movf	_ic_ptr& (0+255),w,b
  3633  0015FC  26D9               	addwf	fsr2l,f,c
  3634  0015FE  0100               	movlb	0	; () banked
  3635  001600  51CD               	movf	(_ic_ptr+1)& (0+255),w,b
  3636  001602  22DA               	addwfc	fsr2h,f,c
  3637  001604  0E0E               	movlw	14
  3638  001606  6EDF               	movwf	indf2,c
  3639                           
  3640                           ; BSR set to: 0
  3641                           ;my_i2c.c: 29: ic_ptr->status = 0x5;
  3642  001608  0100               	movlb	0	; () banked
  3643  00160A  EE20 F021          	lfsr	2,33
  3644  00160E  0100               	movlb	0	; () banked
  3645  001610  51CC               	movf	_ic_ptr& (0+255),w,b
  3646  001612  26D9               	addwf	fsr2l,f,c
  3647  001614  0100               	movlb	0	; () banked
  3648  001616  51CD               	movf	(_ic_ptr+1)& (0+255),w,b
  3649  001618  22DA               	addwfc	fsr2h,f,c
  3650  00161A  0E05               	movlw	5
  3651  00161C  6EDF               	movwf	indf2,c
  3652                           
  3653                           ; BSR set to: 0
  3654                           ;my_i2c.c: 31: SSP1CON1bits.SSPEN = 1;
  3655  00161E  8AC6               	bsf	4038,5,c	;volatile
  3656                           
  3657                           ; BSR set to: 0
  3658  001620  0012               	return	
  3659  001622                     __end_of_i2c_configure_master:
  3660                           	opt stack 0
  3661                           tblptru	equ	0xFF8
  3662                           tblptrh	equ	0xFF7
  3663                           tblptrl	equ	0xFF6
  3664                           tablat	equ	0xFF5
  3665                           prodh	equ	0xFF4
  3666                           prodl	equ	0xFF3
  3667                           postinc0	equ	0xFEE
  3668                           wreg	equ	0xFE8
  3669                           indf1	equ	0xFE7
  3670                           fsr1h	equ	0xFE2
  3671                           fsr1l	equ	0xFE1
  3672                           indf2	equ	0xFDF
  3673                           postinc2	equ	0xFDE
  3674                           postdec2	equ	0xFDD
  3675                           fsr2h	equ	0xFDA
  3676                           fsr2l	equ	0xFD9
  3677                           status	equ	0xFD8
  3678                           
  3679 ;; *************** function _enable_interrupts *****************
  3680 ;; Defined at:
  3681 ;;		line 14 in file "../src/interrupts.c"
  3682 ;; Parameters:    Size  Location     Type
  3683 ;;		None
  3684 ;; Auto vars:     Size  Location     Type
  3685 ;;		None
  3686 ;; Return value:  Size  Location     Type
  3687 ;;		None               void
  3688 ;; Registers used:
  3689 ;;		None
  3690 ;; Tracked objects:
  3691 ;;		On entry : 0/0
  3692 ;;		On exit  : 0/0
  3693 ;;		Unchanged: 0/0
  3694 ;; Data sizes:     COMRAM   BANK0   BANK1   BANK2   BANK3   BANK4   BANK5   BANK6   BANK7   BANK8   BANK9  BANK10  BANK1
      +1  BANK12  BANK13  BANK14
  3695 ;;      Params:         0       0       0       0       0       0       0       0       0       0       0       0       
      +0       0       0       0
  3696 ;;      Locals:         0       0       0       0       0       0       0       0       0       0       0       0       
      +0       0       0       0
  3697 ;;      Temps:          0       0       0       0       0       0       0       0       0       0       0       0       
      +0       0       0       0
  3698 ;;      Totals:         0       0       0       0       0       0       0       0       0       0       0       0       
      +0       0       0       0
  3699 ;;Total ram usage:        0 bytes
  3700 ;; Hardware stack levels used:    1
  3701 ;; Hardware stack levels required when called:   10
  3702 ;; This function calls:
  3703 ;;		Nothing
  3704 ;; This function is called by:
  3705 ;;		_main
  3706 ;; This function uses a non-reentrant model
  3707 ;;
  3708                           
  3709                           	psect	text16
  3710  001BFE                     __ptext16:
  3711                           	opt stack 0
  3712  001BFE                     _enable_interrupts:
  3713                           	opt stack 20
  3714                           
  3715                           ;interrupts.c: 17: RCONbits.IPEN = 1;
  3716                           
  3717                           ; BSR set to: 0
  3718                           ;incstack = 0
  3719  001BFE  8ED0               	bsf	4048,7,c	;volatile
  3720                           
  3721                           ;interrupts.c: 18: INTCONbits.GIEH = 1;
  3722  001C00  8EF2               	bsf	intcon,7,c	;volatile
  3723                           
  3724                           ;interrupts.c: 20: INTCONbits.GIEL = 1;
  3725  001C02  8CF2               	bsf	intcon,6,c	;volatile
  3726  001C04  0012               	return	
  3727  001C06                     __end_of_enable_interrupts:
  3728                           	opt stack 0
  3729                           tblptru	equ	0xFF8
  3730                           tblptrh	equ	0xFF7
  3731                           tblptrl	equ	0xFF6
  3732                           tablat	equ	0xFF5
  3733                           prodh	equ	0xFF4
  3734                           prodl	equ	0xFF3
  3735                           intcon	equ	0xFF2
  3736                           postinc0	equ	0xFEE
  3737                           wreg	equ	0xFE8
  3738                           indf1	equ	0xFE7
  3739                           fsr1h	equ	0xFE2
  3740                           fsr1l	equ	0xFE1
  3741                           indf2	equ	0xFDF
  3742                           postinc2	equ	0xFDE
  3743                           postdec2	equ	0xFDD
  3744                           fsr2h	equ	0xFDA
  3745                           fsr2l	equ	0xFD9
  3746                           status	equ	0xFD8
  3747                           
  3748 ;; *************** function _debug_configure *****************
  3749 ;; Defined at:
  3750 ;;		line 3 in file "../src/debug.c"
  3751 ;; Parameters:    Size  Location     Type
  3752 ;;		None
  3753 ;; Auto vars:     Size  Location     Type
  3754 ;;		None
  3755 ;; Return value:  Size  Location     Type
  3756 ;;		None               void
  3757 ;; Registers used:
  3758 ;;		wreg, status,2
  3759 ;; Tracked objects:
  3760 ;;		On entry : 0/0
  3761 ;;		On exit  : 0/0
  3762 ;;		Unchanged: 0/0
  3763 ;; Data sizes:     COMRAM   BANK0   BANK1   BANK2   BANK3   BANK4   BANK5   BANK6   BANK7   BANK8   BANK9  BANK10  BANK1
      +1  BANK12  BANK13  BANK14
  3764 ;;      Params:         0       0       0       0       0       0       0       0       0       0       0       0       
      +0       0       0       0
  3765 ;;      Locals:         0       0       0       0       0       0       0       0       0       0       0       0       
      +0       0       0       0
  3766 ;;      Temps:          0       0       0       0       0       0       0       0       0       0       0       0       
      +0       0       0       0
  3767 ;;      Totals:         0       0       0       0       0       0       0       0       0       0       0       0       
      +0       0       0       0
  3768 ;;Total ram usage:        0 bytes
  3769 ;; Hardware stack levels used:    1
  3770 ;; Hardware stack levels required when called:   10
  3771 ;; This function calls:
  3772 ;;		Nothing
  3773 ;; This function is called by:
  3774 ;;		_main
  3775 ;; This function uses a non-reentrant model
  3776 ;;
  3777                           
  3778                           	psect	text17
  3779  001BF4                     __ptext17:
  3780                           	opt stack 0
  3781  001BF4                     _debug_configure:
  3782                           	opt stack 20
  3783                           
  3784                           ;debug.c: 5: TRISD = 0x00;
  3785                           
  3786                           ;incstack = 0
  3787  001BF4  0E00               	movlw	0
  3788  001BF6  6E95               	movwf	3989,c	;volatile
  3789                           
  3790                           ;debug.c: 6: TRISBbits.TRISB0=0;
  3791  001BF8  9093               	bcf	3987,0,c	;volatile
  3792                           
  3793                           ;debug.c: 7: TRISBbits.TRISB1=0;
  3794  001BFA  9293               	bcf	3987,1,c	;volatile
  3795  001BFC  0012               	return	
  3796  001BFE                     __end_of_debug_configure:
  3797                           	opt stack 0
  3798                           tblptru	equ	0xFF8
  3799                           tblptrh	equ	0xFF7
  3800                           tblptrl	equ	0xFF6
  3801                           tablat	equ	0xFF5
  3802                           prodh	equ	0xFF4
  3803                           prodl	equ	0xFF3
  3804                           intcon	equ	0xFF2
  3805                           postinc0	equ	0xFEE
  3806                           wreg	equ	0xFE8
  3807                           indf1	equ	0xFE7
  3808                           fsr1h	equ	0xFE2
  3809                           fsr1l	equ	0xFE1
  3810                           indf2	equ	0xFDF
  3811                           postinc2	equ	0xFDE
  3812                           postdec2	equ	0xFDD
  3813                           fsr2h	equ	0xFDA
  3814                           fsr2l	equ	0xFD9
  3815                           status	equ	0xFD8
  3816                           
  3817 ;; *************** function _block_on_To_msgqueues *****************
  3818 ;; Defined at:
  3819 ;;		line 257 in file "../src/messages.c"
  3820 ;; Parameters:    Size  Location     Type
  3821 ;;		None
  3822 ;; Auto vars:     Size  Location     Type
  3823 ;;		None
  3824 ;; Return value:  Size  Location     Type
  3825 ;;		None               void
  3826 ;; Registers used:
  3827 ;;		wreg, fsr2l, fsr2h, status,2, status,0, prodl, prodh, cstack
  3828 ;; Tracked objects:
  3829 ;;		On entry : 0/0
  3830 ;;		On exit  : 0/0
  3831 ;;		Unchanged: 0/0
  3832 ;; Data sizes:     COMRAM   BANK0   BANK1   BANK2   BANK3   BANK4   BANK5   BANK6   BANK7   BANK8   BANK9  BANK10  BANK1
      +1  BANK12  BANK13  BANK14
  3833 ;;      Params:         0       0       0       0       0       0       0       0       0       0       0       0       
      +0       0       0       0
  3834 ;;      Locals:         0       0       0       0       0       0       0       0       0       0       0       0       
      +0       0       0       0
  3835 ;;      Temps:          0       0       0       0       0       0       0       0       0       0       0       0       
      +0       0       0       0
  3836 ;;      Totals:         0       0       0       0       0       0       0       0       0       0       0       0       
      +0       0       0       0
  3837 ;;Total ram usage:        0 bytes
  3838 ;; Hardware stack levels used:    1
  3839 ;; Hardware stack levels required when called:   13
  3840 ;; This function calls:
  3841 ;;		_Delay1KTCYx
  3842 ;;		_check_msg
  3843 ;;		_in_main
  3844 ;; This function is called by:
  3845 ;;		_main
  3846 ;; This function uses a non-reentrant model
  3847 ;;
  3848                           
  3849                           	psect	text18
  3850  001500                     __ptext18:
  3851                           	opt stack 0
  3852  001500                     _block_on_To_msgqueues:
  3853                           	opt stack 17
  3854                           
  3855                           ;messages.c: 258: if (!in_main()) {
  3856                           
  3857                           ;incstack = 0
  3858  001500  EC59  F00C         	call	_in_main	;wreg free
  3859  001504  0100               	movlb	0	; () banked
  3860  001506  5197               	movf	(?_in_main+1)& (0+255),w,b
  3861  001508  0100               	movlb	0	; () banked
  3862  00150A  1196               	iorwf	?_in_main& (0+255),w,b
  3863  00150C  B4D8               	btfsc	status,2,c
  3864  00150E  0012               	return	
  3865                           
  3866                           ; BSR set to: 0
  3867                           ;messages.c: 260: }
  3868                           ;messages.c: 262: MQ_Main_Willing_to_block = 1;
  3869                           
  3870                           ; BSR set to: 0
  3871                           
  3872                           ; BSR set to: 0
  3873                           ;messages.c: 259: return;
  3874  001510  0E01               	movlw	1
  3875  001512  0100               	movlb	0	; () banked
  3876  001514  6FB8               	movwf	_MQ_Main_Willing_to_block& (0+255),b
  3877  001516                     l4079:
  3878                           
  3879                           ;messages.c: 264: if (check_msg(&ToMainHigh_MQ)) {
  3880  001516  0102               	movlb	2	; () banked
  3881  001518  0E02               	movlw	high _ToMainHigh_MQ
  3882  00151A  0100               	movlb	0	; () banked
  3883  00151C  6F93               	movwf	(check_msg@qptr+1)& (0+255),b
  3884  00151E  0102               	movlb	2	; () banked
  3885  001520  0E00               	movlw	low _ToMainHigh_MQ
  3886  001522  0100               	movlb	0	; () banked
  3887  001524  6F92               	movwf	check_msg@qptr& (0+255),b
  3888  001526  ECB0  F00C         	call	_check_msg	;wreg free
  3889  00152A  0900               	iorlw	0
  3890  00152C  B4D8               	btfsc	status,2,c
  3891  00152E  D004               	goto	l4085
  3892                           
  3893                           ;messages.c: 265: MQ_Main_Willing_to_block = 0;
  3894  001530  0E00               	movlw	0
  3895  001532  0100               	movlb	0	; () banked
  3896  001534  6FB8               	movwf	_MQ_Main_Willing_to_block& (0+255),b
  3897  001536  0012               	return	
  3898  001538                     l4085:
  3899                           
  3900                           ;messages.c: 268: }
  3901                           ;messages.c: 269: if (check_msg(&ToMainLow_MQ)) {
  3902  001538  0101               	movlb	1	; () banked
  3903  00153A  0E01               	movlw	high _ToMainLow_MQ
  3904  00153C  0100               	movlb	0	; () banked
  3905  00153E  6F93               	movwf	(check_msg@qptr+1)& (0+255),b
  3906  001540  0101               	movlb	1	; () banked
  3907  001542  0E00               	movlw	low _ToMainLow_MQ
  3908  001544  0100               	movlb	0	; () banked
  3909  001546  6F92               	movwf	check_msg@qptr& (0+255),b
  3910  001548  ECB0  F00C         	call	_check_msg	;wreg free
  3911  00154C  0900               	iorlw	0
  3912  00154E  B4D8               	btfsc	status,2,c
  3913  001550  D004               	goto	l4091
  3914                           
  3915                           ;messages.c: 270: MQ_Main_Willing_to_block = 0;
  3916  001552  0E00               	movlw	0
  3917  001554  0100               	movlb	0	; () banked
  3918  001556  6FB8               	movwf	_MQ_Main_Willing_to_block& (0+255),b
  3919  001558  0012               	return	
  3920  00155A                     l4091:
  3921                           
  3922                           ;messages.c: 273: }
  3923                           ;messages.c: 274: Delay1KTCYx(10);
  3924  00155A  0E0A               	movlw	10
  3925  00155C  ECBE  F00D         	call	_Delay1KTCYx
  3926  001560  D7DA               	goto	l4079
  3927  001562                     __end_of_block_on_To_msgqueues:
  3928                           	opt stack 0
  3929                           tblptru	equ	0xFF8
  3930                           tblptrh	equ	0xFF7
  3931                           tblptrl	equ	0xFF6
  3932                           tablat	equ	0xFF5
  3933                           prodh	equ	0xFF4
  3934                           prodl	equ	0xFF3
  3935                           intcon	equ	0xFF2
  3936                           postinc0	equ	0xFEE
  3937                           wreg	equ	0xFE8
  3938                           indf1	equ	0xFE7
  3939                           fsr1h	equ	0xFE2
  3940                           fsr1l	equ	0xFE1
  3941                           indf2	equ	0xFDF
  3942                           postinc2	equ	0xFDE
  3943                           postdec2	equ	0xFDD
  3944                           fsr2h	equ	0xFDA
  3945                           fsr2l	equ	0xFD9
  3946                           status	equ	0xFD8
  3947                           
  3948 ;; *************** function _in_main *****************
  3949 ;; Defined at:
  3950 ;;		line 43 in file "../src/interrupts.c"
  3951 ;; Parameters:    Size  Location     Type
  3952 ;;		None
  3953 ;; Auto vars:     Size  Location     Type
  3954 ;;		None
  3955 ;; Return value:  Size  Location     Type
  3956 ;;                  2   54[BANK0 ] int 
  3957 ;; Registers used:
  3958 ;;		wreg, status,2, status,0, cstack
  3959 ;; Tracked objects:
  3960 ;;		On entry : 0/0
  3961 ;;		On exit  : 0/0
  3962 ;;		Unchanged: 0/0
  3963 ;; Data sizes:     COMRAM   BANK0   BANK1   BANK2   BANK3   BANK4   BANK5   BANK6   BANK7   BANK8   BANK9  BANK10  BANK1
      +1  BANK12  BANK13  BANK14
  3964 ;;      Params:         0       2       0       0       0       0       0       0       0       0       0       0       
      +0       0       0       0
  3965 ;;      Locals:         0       0       0       0       0       0       0       0       0       0       0       0       
      +0       0       0       0
  3966 ;;      Temps:          0       0       0       0       0       0       0       0       0       0       0       0       
      +0       0       0       0
  3967 ;;      Totals:         0       2       0       0       0       0       0       0       0       0       0       0       
      +0       0       0       0
  3968 ;;Total ram usage:        2 bytes
  3969 ;; Hardware stack levels used:    1
  3970 ;; Hardware stack levels required when called:   12
  3971 ;; This function calls:
  3972 ;;		_in_high_int
  3973 ;;		_in_low_int
  3974 ;; This function is called by:
  3975 ;;		_block_on_To_msgqueues
  3976 ;; This function uses a non-reentrant model
  3977 ;;
  3978                           
  3979                           	psect	text19
  3980  0018B2                     __ptext19:
  3981                           	opt stack 0
  3982  0018B2                     _in_main:
  3983                           	opt stack 17
  3984                           
  3985                           ;interrupts.c: 44: if ((!in_low_int()) && (!in_high_int())) {
  3986                           
  3987                           ;incstack = 0
  3988  0018B2  ECDD  F00B         	call	_in_low_int	;wreg free
  3989  0018B6  0100               	movlb	0	; () banked
  3990  0018B8  5195               	movf	(?_in_low_int+1)& (0+255),w,b
  3991  0018BA  0100               	movlb	0	; () banked
  3992  0018BC  1194               	iorwf	?_in_low_int& (0+255),w,b
  3993  0018BE  A4D8               	btfss	status,2,c
  3994  0018C0  D00F               	goto	l3601
  3995                           
  3996                           ; BSR set to: 0
  3997  0018C2  ECE3  F00D         	call	_in_high_int	;wreg free
  3998  0018C6  0100               	movlb	0	; () banked
  3999  0018C8  5193               	movf	(?_in_high_int+1)& (0+255),w,b
  4000  0018CA  0100               	movlb	0	; () banked
  4001  0018CC  1192               	iorwf	?_in_high_int& (0+255),w,b
  4002  0018CE  A4D8               	btfss	status,2,c
  4003  0018D0  D007               	goto	l3601
  4004                           
  4005                           ; BSR set to: 0
  4006                           ;interrupts.c: 45: return (1);
  4007  0018D2  0E00               	movlw	0
  4008  0018D4  0100               	movlb	0	; () banked
  4009  0018D6  6F97               	movwf	(?_in_main+1)& (0+255),b
  4010  0018D8  0E01               	movlw	1
  4011  0018DA  0100               	movlb	0	; () banked
  4012  0018DC  6F96               	movwf	?_in_main& (0+255),b
  4013  0018DE  0012               	return	
  4014  0018E0                     l3601:
  4015                           
  4016                           ; BSR set to: 0
  4017                           ;interrupts.c: 47: return (0);
  4018  0018E0  0E00               	movlw	0
  4019  0018E2  0100               	movlb	0	; () banked
  4020  0018E4  6F97               	movwf	(?_in_main+1)& (0+255),b
  4021  0018E6  0E00               	movlw	0
  4022  0018E8  0100               	movlb	0	; () banked
  4023  0018EA  6F96               	movwf	?_in_main& (0+255),b
  4024  0018EC  0012               	return	
  4025  0018EE                     __end_of_in_main:
  4026                           	opt stack 0
  4027                           tblptru	equ	0xFF8
  4028                           tblptrh	equ	0xFF7
  4029                           tblptrl	equ	0xFF6
  4030                           tablat	equ	0xFF5
  4031                           prodh	equ	0xFF4
  4032                           prodl	equ	0xFF3
  4033                           intcon	equ	0xFF2
  4034                           postinc0	equ	0xFEE
  4035                           wreg	equ	0xFE8
  4036                           indf1	equ	0xFE7
  4037                           fsr1h	equ	0xFE2
  4038                           fsr1l	equ	0xFE1
  4039                           indf2	equ	0xFDF
  4040                           postinc2	equ	0xFDE
  4041                           postdec2	equ	0xFDD
  4042                           fsr2h	equ	0xFDA
  4043                           fsr2l	equ	0xFD9
  4044                           status	equ	0xFD8
  4045                           
  4046 ;; *************** function _in_low_int *****************
  4047 ;; Defined at:
  4048 ;;		line 33 in file "../src/interrupts.c"
  4049 ;; Parameters:    Size  Location     Type
  4050 ;;		None
  4051 ;; Auto vars:     Size  Location     Type
  4052 ;;		None
  4053 ;; Return value:  Size  Location     Type
  4054 ;;                  2   52[BANK0 ] int 
  4055 ;; Registers used:
  4056 ;;		wreg, status,2, status,0, cstack
  4057 ;; Tracked objects:
  4058 ;;		On entry : 0/0
  4059 ;;		On exit  : 0/0
  4060 ;;		Unchanged: 0/0
  4061 ;; Data sizes:     COMRAM   BANK0   BANK1   BANK2   BANK3   BANK4   BANK5   BANK6   BANK7   BANK8   BANK9  BANK10  BANK1
      +1  BANK12  BANK13  BANK14
  4062 ;;      Params:         0       2       0       0       0       0       0       0       0       0       0       0       
      +0       0       0       0
  4063 ;;      Locals:         0       0       0       0       0       0       0       0       0       0       0       0       
      +0       0       0       0
  4064 ;;      Temps:          0       0       0       0       0       0       0       0       0       0       0       0       
      +0       0       0       0
  4065 ;;      Totals:         0       2       0       0       0       0       0       0       0       0       0       0       
      +0       0       0       0
  4066 ;;Total ram usage:        2 bytes
  4067 ;; Hardware stack levels used:    1
  4068 ;; Hardware stack levels required when called:   11
  4069 ;; This function calls:
  4070 ;;		_in_high_int
  4071 ;; This function is called by:
  4072 ;;		_in_main
  4073 ;; This function uses a non-reentrant model
  4074 ;;
  4075                           
  4076                           	psect	text20
  4077  0017BA                     __ptext20:
  4078                           	opt stack 0
  4079  0017BA                     _in_low_int:
  4080                           	opt stack 17
  4081                           
  4082                           ;interrupts.c: 34: if (INTCONbits.GIEL == 1) {
  4083                           
  4084                           ; BSR set to: 0
  4085                           ;incstack = 0
  4086  0017BA  ACF2               	btfss	intcon,6,c	;volatile
  4087  0017BC  D007               	goto	l3463
  4088                           
  4089                           ;interrupts.c: 35: return (0);
  4090  0017BE  0E00               	movlw	0
  4091  0017C0  0100               	movlb	0	; () banked
  4092  0017C2  6F95               	movwf	(?_in_low_int+1)& (0+255),b
  4093  0017C4  0E00               	movlw	0
  4094  0017C6  0100               	movlb	0	; () banked
  4095  0017C8  6F94               	movwf	?_in_low_int& (0+255),b
  4096  0017CA  0012               	return	
  4097  0017CC                     l3463:
  4098  0017CC  ECE3  F00D         	call	_in_high_int	;wreg free
  4099  0017D0  0100               	movlb	0	; () banked
  4100  0017D2  5193               	movf	(?_in_high_int+1)& (0+255),w,b
  4101  0017D4  0100               	movlb	0	; () banked
  4102  0017D6  1192               	iorwf	?_in_high_int& (0+255),w,b
  4103  0017D8  B4D8               	btfsc	status,2,c
  4104  0017DA  D007               	goto	l3471
  4105                           
  4106                           ; BSR set to: 0
  4107                           ;interrupts.c: 37: return (0);
  4108  0017DC  0E00               	movlw	0
  4109  0017DE  0100               	movlb	0	; () banked
  4110  0017E0  6F95               	movwf	(?_in_low_int+1)& (0+255),b
  4111  0017E2  0E00               	movlw	0
  4112  0017E4  0100               	movlb	0	; () banked
  4113  0017E6  6F94               	movwf	?_in_low_int& (0+255),b
  4114  0017E8  0012               	return	
  4115  0017EA                     l3471:
  4116                           
  4117                           ; BSR set to: 0
  4118                           ;interrupts.c: 39: return (1);
  4119  0017EA  0E00               	movlw	0
  4120  0017EC  0100               	movlb	0	; () banked
  4121  0017EE  6F95               	movwf	(?_in_low_int+1)& (0+255),b
  4122  0017F0  0E01               	movlw	1
  4123  0017F2  0100               	movlb	0	; () banked
  4124  0017F4  6F94               	movwf	?_in_low_int& (0+255),b
  4125  0017F6  0012               	return	
  4126  0017F8                     __end_of_in_low_int:
  4127                           	opt stack 0
  4128                           tblptru	equ	0xFF8
  4129                           tblptrh	equ	0xFF7
  4130                           tblptrl	equ	0xFF6
  4131                           tablat	equ	0xFF5
  4132                           prodh	equ	0xFF4
  4133                           prodl	equ	0xFF3
  4134                           intcon	equ	0xFF2
  4135                           postinc0	equ	0xFEE
  4136                           wreg	equ	0xFE8
  4137                           indf1	equ	0xFE7
  4138                           fsr1h	equ	0xFE2
  4139                           fsr1l	equ	0xFE1
  4140                           indf2	equ	0xFDF
  4141                           postinc2	equ	0xFDE
  4142                           postdec2	equ	0xFDD
  4143                           fsr2h	equ	0xFDA
  4144                           fsr2l	equ	0xFD9
  4145                           status	equ	0xFD8
  4146                           
  4147 ;; *************** function _in_high_int *****************
  4148 ;; Defined at:
  4149 ;;		line 25 in file "../src/interrupts.c"
  4150 ;; Parameters:    Size  Location     Type
  4151 ;;		None
  4152 ;; Auto vars:     Size  Location     Type
  4153 ;;		None
  4154 ;; Return value:  Size  Location     Type
  4155 ;;                  2   50[BANK0 ] int 
  4156 ;; Registers used:
  4157 ;;		wreg, status,2
  4158 ;; Tracked objects:
  4159 ;;		On entry : 0/0
  4160 ;;		On exit  : 0/0
  4161 ;;		Unchanged: 0/0
  4162 ;; Data sizes:     COMRAM   BANK0   BANK1   BANK2   BANK3   BANK4   BANK5   BANK6   BANK7   BANK8   BANK9  BANK10  BANK1
      +1  BANK12  BANK13  BANK14
  4163 ;;      Params:         0       2       0       0       0       0       0       0       0       0       0       0       
      +0       0       0       0
  4164 ;;      Locals:         0       0       0       0       0       0       0       0       0       0       0       0       
      +0       0       0       0
  4165 ;;      Temps:          0       0       0       0       0       0       0       0       0       0       0       0       
      +0       0       0       0
  4166 ;;      Totals:         0       2       0       0       0       0       0       0       0       0       0       0       
      +0       0       0       0
  4167 ;;Total ram usage:        2 bytes
  4168 ;; Hardware stack levels used:    1
  4169 ;; Hardware stack levels required when called:   10
  4170 ;; This function calls:
  4171 ;;		Nothing
  4172 ;; This function is called by:
  4173 ;;		_in_low_int
  4174 ;;		_in_main
  4175 ;; This function uses a non-reentrant model
  4176 ;;
  4177                           
  4178                           	psect	text21
  4179  001BC6                     __ptext21:
  4180                           	opt stack 0
  4181  001BC6                     _in_high_int:
  4182                           	opt stack 17
  4183                           
  4184                           ;interrupts.c: 26: return (!INTCONbits.GIEH);
  4185                           
  4186                           ; BSR set to: 0
  4187                           ;incstack = 0
  4188  001BC6  0E00               	movlw	0
  4189  001BC8  AEF2               	btfss	intcon,7,c	;volatile
  4190  001BCA  0E01               	movlw	1
  4191  001BCC  0100               	movlb	0	; () banked
  4192  001BCE  6F92               	movwf	?_in_high_int& (0+255),b
  4193  001BD0  0100               	movlb	0	; () banked
  4194  001BD2  6B93               	clrf	(?_in_high_int+1)& (0+255),b
  4195  001BD4  0012               	return	
  4196  001BD6                     __end_of_in_high_int:
  4197                           	opt stack 0
  4198                           tblptru	equ	0xFF8
  4199                           tblptrh	equ	0xFF7
  4200                           tblptrl	equ	0xFF6
  4201                           tablat	equ	0xFF5
  4202                           prodh	equ	0xFF4
  4203                           prodl	equ	0xFF3
  4204                           intcon	equ	0xFF2
  4205                           postinc0	equ	0xFEE
  4206                           wreg	equ	0xFE8
  4207                           indf1	equ	0xFE7
  4208                           fsr1h	equ	0xFE2
  4209                           fsr1l	equ	0xFE1
  4210                           indf2	equ	0xFDF
  4211                           postinc2	equ	0xFDE
  4212                           postdec2	equ	0xFDD
  4213                           fsr2h	equ	0xFDA
  4214                           fsr2l	equ	0xFD9
  4215                           status	equ	0xFD8
  4216                           
  4217 ;; *************** function _check_msg *****************
  4218 ;; Defined at:
  4219 ;;		line 221 in file "../src/messages.c"
  4220 ;; Parameters:    Size  Location     Type
  4221 ;;  qptr            2   50[BANK0 ] PTR struct __msg_queue
  4222 ;;		 -> ToMainHigh_MQ(138), ToMainLow_MQ(138), 
  4223 ;; Auto vars:     Size  Location     Type
  4224 ;;		None
  4225 ;; Return value:  Size  Location     Type
  4226 ;;                  1    wreg      unsigned char 
  4227 ;; Registers used:
  4228 ;;		wreg, fsr2l, fsr2h, status,2, status,0, prodl, prodh
  4229 ;; Tracked objects:
  4230 ;;		On entry : 0/0
  4231 ;;		On exit  : 0/0
  4232 ;;		Unchanged: 0/0
  4233 ;; Data sizes:     COMRAM   BANK0   BANK1   BANK2   BANK3   BANK4   BANK5   BANK6   BANK7   BANK8   BANK9  BANK10  BANK1
      +1  BANK12  BANK13  BANK14
  4234 ;;      Params:         0       2       0       0       0       0       0       0       0       0       0       0       
      +0       0       0       0
  4235 ;;      Locals:         0       0       0       0       0       0       0       0       0       0       0       0       
      +0       0       0       0
  4236 ;;      Temps:          0       1       0       0       0       0       0       0       0       0       0       0       
      +0       0       0       0
  4237 ;;      Totals:         0       3       0       0       0       0       0       0       0       0       0       0       
      +0       0       0       0
  4238 ;;Total ram usage:        3 bytes
  4239 ;; Hardware stack levels used:    1
  4240 ;; Hardware stack levels required when called:   10
  4241 ;; This function calls:
  4242 ;;		Nothing
  4243 ;; This function is called by:
  4244 ;;		_block_on_To_msgqueues
  4245 ;; This function uses a non-reentrant model
  4246 ;;
  4247                           
  4248                           	psect	text22
  4249  001960                     __ptext22:
  4250                           	opt stack 0
  4251  001960                     _check_msg:
  4252                           	opt stack 19
  4253                           
  4254                           ;messages.c: 222: return (qptr->queue[qptr->cur_read_ind].full);
  4255                           
  4256                           ; BSR set to: 0
  4257                           ;incstack = 0
  4258  001960  0100               	movlb	0	; () banked
  4259  001962  EE20 F089          	lfsr	2,137
  4260  001966  0100               	movlb	0	; () banked
  4261  001968  5192               	movf	check_msg@qptr& (0+255),w,b
  4262  00196A  26D9               	addwf	fsr2l,f,c
  4263  00196C  0100               	movlb	0	; () banked
  4264  00196E  5193               	movf	(check_msg@qptr+1)& (0+255),w,b
  4265  001970  22DA               	addwfc	fsr2h,f,c
  4266  001972  50DF               	movf	indf2,w,c
  4267  001974  0100               	movlb	0	; () banked
  4268  001976  6F94               	movwf	??_check_msg& (0+255),b
  4269  001978  0100               	movlb	0	; () banked
  4270  00197A  5194               	movf	??_check_msg& (0+255),w,b
  4271  00197C  0D11               	mullw	17
  4272  00197E  50F3               	movf	prodl,w,c
  4273  001980  0100               	movlb	0	; () banked
  4274  001982  2592               	addwf	check_msg@qptr& (0+255),w,b
  4275  001984  6ED9               	movwf	fsr2l,c
  4276  001986  50F4               	movf	prodh,w,c
  4277  001988  0100               	movlb	0	; () banked
  4278  00198A  2193               	addwfc	(check_msg@qptr+1)& (0+255),w,b
  4279  00198C  6EDA               	movwf	fsr2h,c
  4280  00198E  50DF               	movf	indf2,w,c
  4281  001990  0012               	return	
  4282  001992                     __end_of_check_msg:
  4283                           	opt stack 0
  4284                           tblptru	equ	0xFF8
  4285                           tblptrh	equ	0xFF7
  4286                           tblptrl	equ	0xFF6
  4287                           tablat	equ	0xFF5
  4288                           prodh	equ	0xFF4
  4289                           prodl	equ	0xFF3
  4290                           intcon	equ	0xFF2
  4291                           postinc0	equ	0xFEE
  4292                           wreg	equ	0xFE8
  4293                           indf1	equ	0xFE7
  4294                           fsr1h	equ	0xFE2
  4295                           fsr1l	equ	0xFE1
  4296                           indf2	equ	0xFDF
  4297                           postinc2	equ	0xFDE
  4298                           postdec2	equ	0xFDD
  4299                           fsr2h	equ	0xFDA
  4300                           fsr2l	equ	0xFD9
  4301                           status	equ	0xFD8
  4302                           
  4303 ;; *************** function _Delay1KTCYx *****************
  4304 ;; Defined at:
  4305 ;;		line 8 in file "C:\Program Files (x86)\Microchip\xc8\v1.32\sources\pic18\d1ktcyx.c"
  4306 ;; Parameters:    Size  Location     Type
  4307 ;;  unit            1    wreg     unsigned char 
  4308 ;; Auto vars:     Size  Location     Type
  4309 ;;  unit            1   50[BANK0 ] unsigned char 
  4310 ;; Return value:  Size  Location     Type
  4311 ;;		None               void
  4312 ;; Registers used:
  4313 ;;		wreg
  4314 ;; Tracked objects:
  4315 ;;		On entry : 0/0
  4316 ;;		On exit  : 0/0
  4317 ;;		Unchanged: 0/0
  4318 ;; Data sizes:     COMRAM   BANK0   BANK1   BANK2   BANK3   BANK4   BANK5   BANK6   BANK7   BANK8   BANK9  BANK10  BANK1
      +1  BANK12  BANK13  BANK14
  4319 ;;      Params:         0       0       0       0       0       0       0       0       0       0       0       0       
      +0       0       0       0
  4320 ;;      Locals:         0       1       0       0       0       0       0       0       0       0       0       0       
      +0       0       0       0
  4321 ;;      Temps:          0       0       0       0       0       0       0       0       0       0       0       0       
      +0       0       0       0
  4322 ;;      Totals:         0       1       0       0       0       0       0       0       0       0       0       0       
      +0       0       0       0
  4323 ;;Total ram usage:        1 bytes
  4324 ;; Hardware stack levels used:    1
  4325 ;; Hardware stack levels required when called:   10
  4326 ;; This function calls:
  4327 ;;		Nothing
  4328 ;; This function is called by:
  4329 ;;		_block_on_To_msgqueues
  4330 ;; This function uses a non-reentrant model
  4331 ;;
  4332                           
  4333                           	psect	text23
  4334  001B7C                     __ptext23:
  4335                           	opt stack 0
  4336  001B7C                     _Delay1KTCYx:
  4337                           	opt stack 19
  4338                           
  4339                           ; BSR set to: 0
  4340                           ;incstack = 0
  4341                           ;Delay1KTCYx@unit stored from wreg
  4342  001B7C  0100               	movlb	0	; () banked
  4343  001B7E  6F92               	movwf	Delay1KTCYx@unit& (0+255),b
  4344  001B80                     l836:
  4345                           
  4346                           ; BSR set to: 0
  4347                           
  4348                           ; BSR set to: 0
  4349  001B80  0EFA               	movlw	250
  4350  001B82                     u2877:
  4351  001B82  F000               	nop	
  4352  001B84  2EE8               	decfsz	wreg,f,c
  4353  001B86  D7FD               	goto	u2877
  4354  001B88  0100               	movlb	0	; () banked
  4355  001B8A  2F92               	decfsz	Delay1KTCYx@unit& (0+255),f,b
  4356  001B8C  D7F9               	goto	l836
  4357  001B8E  0012               	return	
  4358  001B90                     __end_of_Delay1KTCYx:
  4359                           	opt stack 0
  4360                           tblptru	equ	0xFF8
  4361                           tblptrh	equ	0xFF7
  4362                           tblptrl	equ	0xFF6
  4363                           tablat	equ	0xFF5
  4364                           prodh	equ	0xFF4
  4365                           prodl	equ	0xFF3
  4366                           intcon	equ	0xFF2
  4367                           postinc0	equ	0xFEE
  4368                           wreg	equ	0xFE8
  4369                           indf1	equ	0xFE7
  4370                           fsr1h	equ	0xFE2
  4371                           fsr1l	equ	0xFE1
  4372                           indf2	equ	0xFDF
  4373                           postinc2	equ	0xFDE
  4374                           postdec2	equ	0xFDD
  4375                           fsr2h	equ	0xFDA
  4376                           fsr2l	equ	0xFD9
  4377                           status	equ	0xFD8
  4378                           
  4379 ;; *************** function _blip4 *****************
  4380 ;; Defined at:
  4381 ;;		line 39 in file "../src/debug.c"
  4382 ;; Parameters:    Size  Location     Type
  4383 ;;		None
  4384 ;; Auto vars:     Size  Location     Type
  4385 ;;		None
  4386 ;; Return value:  Size  Location     Type
  4387 ;;		None               void
  4388 ;; Registers used:
  4389 ;;		None
  4390 ;; Tracked objects:
  4391 ;;		On entry : 0/0
  4392 ;;		On exit  : 0/0
  4393 ;;		Unchanged: 0/0
  4394 ;; Data sizes:     COMRAM   BANK0   BANK1   BANK2   BANK3   BANK4   BANK5   BANK6   BANK7   BANK8   BANK9  BANK10  BANK1
      +1  BANK12  BANK13  BANK14
  4395 ;;      Params:         0       0       0       0       0       0       0       0       0       0       0       0       
      +0       0       0       0
  4396 ;;      Locals:         0       0       0       0       0       0       0       0       0       0       0       0       
      +0       0       0       0
  4397 ;;      Temps:          0       0       0       0       0       0       0       0       0       0       0       0       
      +0       0       0       0
  4398 ;;      Totals:         0       0       0       0       0       0       0       0       0       0       0       0       
      +0       0       0       0
  4399 ;;Total ram usage:        0 bytes
  4400 ;; Hardware stack levels used:    1
  4401 ;; Hardware stack levels required when called:   10
  4402 ;; This function calls:
  4403 ;;		Nothing
  4404 ;; This function is called by:
  4405 ;;		_main
  4406 ;; This function uses a non-reentrant model
  4407 ;;
  4408                           
  4409                           	psect	text24
  4410  001C06                     __ptext24:
  4411                           	opt stack 0
  4412  001C06                     _blip4:
  4413                           	opt stack 20
  4414                           
  4415                           ;debug.c: 41: LATDbits.LD7 = 0;
  4416                           
  4417                           ; BSR set to: 0
  4418                           ;incstack = 0
  4419  001C06  9E8C               	bcf	3980,7,c	;volatile
  4420                           
  4421                           ;debug.c: 42: LATDbits.LD7 = 1;
  4422  001C08  8E8C               	bsf	3980,7,c	;volatile
  4423                           
  4424                           ;debug.c: 43: LATDbits.LD7 = 0;
  4425  001C0A  9E8C               	bcf	3980,7,c	;volatile
  4426  001C0C  0012               	return	
  4427  001C0E                     __end_of_blip4:
  4428                           	opt stack 0
  4429                           tblptru	equ	0xFF8
  4430                           tblptrh	equ	0xFF7
  4431                           tblptrl	equ	0xFF6
  4432                           tablat	equ	0xFF5
  4433                           prodh	equ	0xFF4
  4434                           prodl	equ	0xFF3
  4435                           intcon	equ	0xFF2
  4436                           postinc0	equ	0xFEE
  4437                           wreg	equ	0xFE8
  4438                           indf1	equ	0xFE7
  4439                           fsr1h	equ	0xFE2
  4440                           fsr1l	equ	0xFE1
  4441                           indf2	equ	0xFDF
  4442                           postinc2	equ	0xFDE
  4443                           postdec2	equ	0xFDD
  4444                           fsr2h	equ	0xFDA
  4445                           fsr2l	equ	0xFD9
  4446                           status	equ	0xFD8
  4447                           
  4448 ;; *************** function _blip3 *****************
  4449 ;; Defined at:
  4450 ;;		line 32 in file "../src/debug.c"
  4451 ;; Parameters:    Size  Location     Type
  4452 ;;		None
  4453 ;; Auto vars:     Size  Location     Type
  4454 ;;		None
  4455 ;; Return value:  Size  Location     Type
  4456 ;;		None               void
  4457 ;; Registers used:
  4458 ;;		None
  4459 ;; Tracked objects:
  4460 ;;		On entry : 0/0
  4461 ;;		On exit  : 0/0
  4462 ;;		Unchanged: 0/0
  4463 ;; Data sizes:     COMRAM   BANK0   BANK1   BANK2   BANK3   BANK4   BANK5   BANK6   BANK7   BANK8   BANK9  BANK10  BANK1
      +1  BANK12  BANK13  BANK14
  4464 ;;      Params:         0       0       0       0       0       0       0       0       0       0       0       0       
      +0       0       0       0
  4465 ;;      Locals:         0       0       0       0       0       0       0       0       0       0       0       0       
      +0       0       0       0
  4466 ;;      Temps:          0       0       0       0       0       0       0       0       0       0       0       0       
      +0       0       0       0
  4467 ;;      Totals:         0       0       0       0       0       0       0       0       0       0       0       0       
      +0       0       0       0
  4468 ;;Total ram usage:        0 bytes
  4469 ;; Hardware stack levels used:    1
  4470 ;; Hardware stack levels required when called:   10
  4471 ;; This function calls:
  4472 ;;		Nothing
  4473 ;; This function is called by:
  4474 ;;		_main
  4475 ;; This function uses a non-reentrant model
  4476 ;;
  4477                           
  4478                           	psect	text25
  4479  001C0E                     __ptext25:
  4480                           	opt stack 0
  4481  001C0E                     _blip3:
  4482                           	opt stack 20
  4483                           
  4484                           ;debug.c: 34: LATDbits.LD6 = 0;
  4485                           
  4486                           ;incstack = 0
  4487  001C0E  9C8C               	bcf	3980,6,c	;volatile
  4488                           
  4489                           ;debug.c: 35: LATDbits.LD6 = 1;
  4490  001C10  8C8C               	bsf	3980,6,c	;volatile
  4491                           
  4492                           ;debug.c: 36: LATDbits.LD6 = 0;
  4493  001C12  9C8C               	bcf	3980,6,c	;volatile
  4494  001C14  0012               	return	
  4495  001C16                     __end_of_blip3:
  4496                           	opt stack 0
  4497                           tblptru	equ	0xFF8
  4498                           tblptrh	equ	0xFF7
  4499                           tblptrl	equ	0xFF6
  4500                           tablat	equ	0xFF5
  4501                           prodh	equ	0xFF4
  4502                           prodl	equ	0xFF3
  4503                           intcon	equ	0xFF2
  4504                           postinc0	equ	0xFEE
  4505                           wreg	equ	0xFE8
  4506                           indf1	equ	0xFE7
  4507                           fsr1h	equ	0xFE2
  4508                           fsr1l	equ	0xFE1
  4509                           indf2	equ	0xFDF
  4510                           postinc2	equ	0xFDE
  4511                           postdec2	equ	0xFDD
  4512                           fsr2h	equ	0xFDA
  4513                           fsr2l	equ	0xFD9
  4514                           status	equ	0xFD8
  4515                           
  4516 ;; *************** function _blip2 *****************
  4517 ;; Defined at:
  4518 ;;		line 25 in file "../src/debug.c"
  4519 ;; Parameters:    Size  Location     Type
  4520 ;;		None
  4521 ;; Auto vars:     Size  Location     Type
  4522 ;;		None
  4523 ;; Return value:  Size  Location     Type
  4524 ;;		None               void
  4525 ;; Registers used:
  4526 ;;		None
  4527 ;; Tracked objects:
  4528 ;;		On entry : 0/0
  4529 ;;		On exit  : 0/0
  4530 ;;		Unchanged: 0/0
  4531 ;; Data sizes:     COMRAM   BANK0   BANK1   BANK2   BANK3   BANK4   BANK5   BANK6   BANK7   BANK8   BANK9  BANK10  BANK1
      +1  BANK12  BANK13  BANK14
  4532 ;;      Params:         0       0       0       0       0       0       0       0       0       0       0       0       
      +0       0       0       0
  4533 ;;      Locals:         0       0       0       0       0       0       0       0       0       0       0       0       
      +0       0       0       0
  4534 ;;      Temps:          0       0       0       0       0       0       0       0       0       0       0       0       
      +0       0       0       0
  4535 ;;      Totals:         0       0       0       0       0       0       0       0       0       0       0       0       
      +0       0       0       0
  4536 ;;Total ram usage:        0 bytes
  4537 ;; Hardware stack levels used:    1
  4538 ;; Hardware stack levels required when called:   10
  4539 ;; This function calls:
  4540 ;;		Nothing
  4541 ;; This function is called by:
  4542 ;;		_main
  4543 ;; This function uses a non-reentrant model
  4544 ;;
  4545                           
  4546                           	psect	text26
  4547  001C16                     __ptext26:
  4548                           	opt stack 0
  4549  001C16                     _blip2:
  4550                           	opt stack 20
  4551                           
  4552                           ;debug.c: 27: LATDbits.LD5 = 0;
  4553                           
  4554                           ;incstack = 0
  4555  001C16  9A8C               	bcf	3980,5,c	;volatile
  4556                           
  4557                           ;debug.c: 28: LATDbits.LD5 = 1;
  4558  001C18  8A8C               	bsf	3980,5,c	;volatile
  4559                           
  4560                           ;debug.c: 29: LATDbits.LD5 = 0;
  4561  001C1A  9A8C               	bcf	3980,5,c	;volatile
  4562  001C1C  0012               	return	
  4563  001C1E                     __end_of_blip2:
  4564                           	opt stack 0
  4565                           tblptru	equ	0xFF8
  4566                           tblptrh	equ	0xFF7
  4567                           tblptrl	equ	0xFF6
  4568                           tablat	equ	0xFF5
  4569                           prodh	equ	0xFF4
  4570                           prodl	equ	0xFF3
  4571                           intcon	equ	0xFF2
  4572                           postinc0	equ	0xFEE
  4573                           wreg	equ	0xFE8
  4574                           indf1	equ	0xFE7
  4575                           fsr1h	equ	0xFE2
  4576                           fsr1l	equ	0xFE1
  4577                           indf2	equ	0xFDF
  4578                           postinc2	equ	0xFDE
  4579                           postdec2	equ	0xFDD
  4580                           fsr2h	equ	0xFDA
  4581                           fsr2l	equ	0xFD9
  4582                           status	equ	0xFD8
  4583                           
  4584 ;; *************** function _blip1 *****************
  4585 ;; Defined at:
  4586 ;;		line 18 in file "../src/debug.c"
  4587 ;; Parameters:    Size  Location     Type
  4588 ;;		None
  4589 ;; Auto vars:     Size  Location     Type
  4590 ;;		None
  4591 ;; Return value:  Size  Location     Type
  4592 ;;		None               void
  4593 ;; Registers used:
  4594 ;;		None
  4595 ;; Tracked objects:
  4596 ;;		On entry : 0/0
  4597 ;;		On exit  : 0/0
  4598 ;;		Unchanged: 0/0
  4599 ;; Data sizes:     COMRAM   BANK0   BANK1   BANK2   BANK3   BANK4   BANK5   BANK6   BANK7   BANK8   BANK9  BANK10  BANK1
      +1  BANK12  BANK13  BANK14
  4600 ;;      Params:         0       0       0       0       0       0       0       0       0       0       0       0       
      +0       0       0       0
  4601 ;;      Locals:         0       0       0       0       0       0       0       0       0       0       0       0       
      +0       0       0       0
  4602 ;;      Temps:          0       0       0       0       0       0       0       0       0       0       0       0       
      +0       0       0       0
  4603 ;;      Totals:         0       0       0       0       0       0       0       0       0       0       0       0       
      +0       0       0       0
  4604 ;;Total ram usage:        0 bytes
  4605 ;; Hardware stack levels used:    1
  4606 ;; Hardware stack levels required when called:   10
  4607 ;; This function calls:
  4608 ;;		Nothing
  4609 ;; This function is called by:
  4610 ;;		_main
  4611 ;; This function uses a non-reentrant model
  4612 ;;
  4613                           
  4614                           	psect	text27
  4615  001C1E                     __ptext27:
  4616                           	opt stack 0
  4617  001C1E                     _blip1:
  4618                           	opt stack 20
  4619                           
  4620                           ;debug.c: 20: LATDbits.LD4 = 0;
  4621                           
  4622                           ;incstack = 0
  4623  001C1E  988C               	bcf	3980,4,c	;volatile
  4624                           
  4625                           ;debug.c: 21: LATDbits.LD4 = 1;
  4626  001C20  888C               	bsf	3980,4,c	;volatile
  4627                           
  4628                           ;debug.c: 22: LATDbits.LD4 = 0;
  4629  001C22  988C               	bcf	3980,4,c	;volatile
  4630  001C24  0012               	return	
  4631  001C26                     __end_of_blip1:
  4632                           	opt stack 0
  4633                           tblptru	equ	0xFF8
  4634                           tblptrh	equ	0xFF7
  4635                           tblptrl	equ	0xFF6
  4636                           tablat	equ	0xFF5
  4637                           prodh	equ	0xFF4
  4638                           prodl	equ	0xFF3
  4639                           intcon	equ	0xFF2
  4640                           postinc0	equ	0xFEE
  4641                           wreg	equ	0xFE8
  4642                           indf1	equ	0xFE7
  4643                           fsr1h	equ	0xFE2
  4644                           fsr1l	equ	0xFE1
  4645                           indf2	equ	0xFDF
  4646                           postinc2	equ	0xFDE
  4647                           postdec2	equ	0xFDD
  4648                           fsr2h	equ	0xFDA
  4649                           fsr2l	equ	0xFD9
  4650                           status	equ	0xFD8
  4651                           
  4652 ;; *************** function _blip *****************
  4653 ;; Defined at:
  4654 ;;		line 11 in file "../src/debug.c"
  4655 ;; Parameters:    Size  Location     Type
  4656 ;;		None
  4657 ;; Auto vars:     Size  Location     Type
  4658 ;;		None
  4659 ;; Return value:  Size  Location     Type
  4660 ;;		None               void
  4661 ;; Registers used:
  4662 ;;		None
  4663 ;; Tracked objects:
  4664 ;;		On entry : 0/0
  4665 ;;		On exit  : 0/0
  4666 ;;		Unchanged: 0/0
  4667 ;; Data sizes:     COMRAM   BANK0   BANK1   BANK2   BANK3   BANK4   BANK5   BANK6   BANK7   BANK8   BANK9  BANK10  BANK1
      +1  BANK12  BANK13  BANK14
  4668 ;;      Params:         0       0       0       0       0       0       0       0       0       0       0       0       
      +0       0       0       0
  4669 ;;      Locals:         0       0       0       0       0       0       0       0       0       0       0       0       
      +0       0       0       0
  4670 ;;      Temps:          0       0       0       0       0       0       0       0       0       0       0       0       
      +0       0       0       0
  4671 ;;      Totals:         0       0       0       0       0       0       0       0       0       0       0       0       
      +0       0       0       0
  4672 ;;Total ram usage:        0 bytes
  4673 ;; Hardware stack levels used:    1
  4674 ;; Hardware stack levels required when called:   10
  4675 ;; This function calls:
  4676 ;;		Nothing
  4677 ;; This function is called by:
  4678 ;;		_main
  4679 ;; This function uses a non-reentrant model
  4680 ;;
  4681                           
  4682                           	psect	text28
  4683  001C26                     __ptext28:
  4684                           	opt stack 0
  4685  001C26                     _blip:
  4686                           	opt stack 20
  4687                           
  4688                           ;debug.c: 13: LATDbits.LD2 = 0;
  4689                           
  4690                           ;incstack = 0
  4691  001C26  948C               	bcf	3980,2,c	;volatile
  4692                           
  4693                           ;debug.c: 14: LATDbits.LD2 = 1;
  4694  001C28  848C               	bsf	3980,2,c	;volatile
  4695                           
  4696                           ;debug.c: 15: LATDbits.LD2 = 0;
  4697  001C2A  948C               	bcf	3980,2,c	;volatile
  4698  001C2C  0012               	return	
  4699  001C2E                     __end_of_blip:
  4700                           	opt stack 0
  4701                           tblptru	equ	0xFF8
  4702                           tblptrh	equ	0xFF7
  4703                           tblptrl	equ	0xFF6
  4704                           tablat	equ	0xFF5
  4705                           prodh	equ	0xFF4
  4706                           prodl	equ	0xFF3
  4707                           intcon	equ	0xFF2
  4708                           postinc0	equ	0xFEE
  4709                           wreg	equ	0xFE8
  4710                           indf1	equ	0xFE7
  4711                           fsr1h	equ	0xFE2
  4712                           fsr1l	equ	0xFE1
  4713                           indf2	equ	0xFDF
  4714                           postinc2	equ	0xFDE
  4715                           postdec2	equ	0xFDD
  4716                           fsr2h	equ	0xFDA
  4717                           fsr2l	equ	0xFD9
  4718                           status	equ	0xFD8
  4719                           
  4720 ;; *************** function _ToMainLow_recvmsg *****************
  4721 ;; Defined at:
  4722 ;;		line 113 in file "../src/messages.c"
  4723 ;; Parameters:    Size  Location     Type
  4724 ;;  maxlength       1    wreg     unsigned char 
  4725 ;;  msgtype         2    5[BANK1 ] PTR unsigned char 
  4726 ;;		 -> main@msgtype(1), 
  4727 ;;  data            2    7[BANK1 ] PTR void 
  4728 ;;		 -> main@msgbuffer(15), 
  4729 ;; Auto vars:     Size  Location     Type
  4730 ;;  maxlength       1   69[BANK0 ] unsigned char 
  4731 ;; Return value:  Size  Location     Type
  4732 ;;                  1    wreg      char 
  4733 ;; Registers used:
  4734 ;;		wreg, fsr1l, fsr1h, fsr2l, fsr2h, status,2, status,0, prodl, prodh, cstack
  4735 ;; Tracked objects:
  4736 ;;		On entry : 0/0
  4737 ;;		On exit  : 0/0
  4738 ;;		Unchanged: 0/0
  4739 ;; Data sizes:     COMRAM   BANK0   BANK1   BANK2   BANK3   BANK4   BANK5   BANK6   BANK7   BANK8   BANK9  BANK10  BANK1
      +1  BANK12  BANK13  BANK14
  4740 ;;      Params:         0       0       4       0       0       0       0       0       0       0       0       0       
      +0       0       0       0
  4741 ;;      Locals:         0       1       0       0       0       0       0       0       0       0       0       0       
      +0       0       0       0
  4742 ;;      Temps:          0       0       0       0       0       0       0       0       0       0       0       0       
      +0       0       0       0
  4743 ;;      Totals:         0       1       4       0       0       0       0       0       0       0       0       0       
      +0       0       0       0
  4744 ;;Total ram usage:        5 bytes
  4745 ;; Hardware stack levels used:    1
  4746 ;; Hardware stack levels required when called:   12
  4747 ;; This function calls:
  4748 ;;		_recv_msg
  4749 ;; This function is called by:
  4750 ;;		_main
  4751 ;; This function uses a non-reentrant model
  4752 ;;
  4753                           
  4754                           	psect	text29
  4755  0017F8                     __ptext29:
  4756                           	opt stack 0
  4757  0017F8                     _ToMainLow_recvmsg:
  4758                           	opt stack 18
  4759                           
  4760                           ;incstack = 0
  4761                           ;ToMainLow_recvmsg@maxlength stored from wreg
  4762  0017F8  0100               	movlb	0	; () banked
  4763  0017FA  6FA5               	movwf	ToMainLow_recvmsg@maxlength& (0+255),b
  4764                           
  4765                           ; BSR set to: 0
  4766                           ;messages.c: 119: return (recv_msg(&ToMainLow_MQ, maxlength, msgtype, data));
  4767  0017FC  0101               	movlb	1	; () banked
  4768  0017FE  0E01               	movlw	high _ToMainLow_MQ
  4769  001800  0100               	movlb	0	; () banked
  4770  001802  6F9D               	movwf	(recv_msg@qptr+1)& (0+255),b
  4771  001804  0101               	movlb	1	; () banked
  4772  001806  0E00               	movlw	low _ToMainLow_MQ
  4773  001808  0100               	movlb	0	; () banked
  4774  00180A  6F9C               	movwf	recv_msg@qptr& (0+255),b
  4775  00180C  C0A5  F09E         	movff	ToMainLow_recvmsg@maxlength,recv_msg@maxlength
  4776  001810  0101               	movlb	1	; () banked
  4777  001812  0100               	movlb	0	; () banked
  4778  001814  C190  F0A0         	movff	ToMainLow_recvmsg@msgtype+1,recv_msg@msgtype+1
  4779  001818  0101               	movlb	1	; () banked
  4780  00181A  0100               	movlb	0	; () banked
  4781  00181C  C18F  F09F         	movff	ToMainLow_recvmsg@msgtype,recv_msg@msgtype
  4782  001820  0101               	movlb	1	; () banked
  4783  001822  0100               	movlb	0	; () banked
  4784  001824  C192  F0A2         	movff	ToMainLow_recvmsg@data+1,recv_msg@data+1
  4785  001828  0101               	movlb	1	; () banked
  4786  00182A  0100               	movlb	0	; () banked
  4787  00182C  C191  F0A1         	movff	ToMainLow_recvmsg@data,recv_msg@data
  4788  001830  ECDC  F005         	call	_recv_msg	;wreg free
  4789  001834  0012               	return	
  4790  001836                     __end_of_ToMainLow_recvmsg:
  4791                           	opt stack 0
  4792                           tblptru	equ	0xFF8
  4793                           tblptrh	equ	0xFF7
  4794                           tblptrl	equ	0xFF6
  4795                           tablat	equ	0xFF5
  4796                           prodh	equ	0xFF4
  4797                           prodl	equ	0xFF3
  4798                           intcon	equ	0xFF2
  4799                           postinc0	equ	0xFEE
  4800                           wreg	equ	0xFE8
  4801                           indf1	equ	0xFE7
  4802                           fsr1h	equ	0xFE2
  4803                           fsr1l	equ	0xFE1
  4804                           indf2	equ	0xFDF
  4805                           postinc2	equ	0xFDE
  4806                           postdec2	equ	0xFDD
  4807                           fsr2h	equ	0xFDA
  4808                           fsr2l	equ	0xFD9
  4809                           status	equ	0xFD8
  4810                           
  4811 ;; *************** function _ToMainHigh_recvmsg *****************
  4812 ;; Defined at:
  4813 ;;		line 136 in file "../src/messages.c"
  4814 ;; Parameters:    Size  Location     Type
  4815 ;;  maxlength       1    wreg     unsigned char 
  4816 ;;  msgtype         2    5[BANK1 ] PTR unsigned char 
  4817 ;;		 -> main@msgtype(1), 
  4818 ;;  data            2    7[BANK1 ] PTR void 
  4819 ;;		 -> main@msgbuffer(15), 
  4820 ;; Auto vars:     Size  Location     Type
  4821 ;;  maxlength       1   69[BANK0 ] unsigned char 
  4822 ;; Return value:  Size  Location     Type
  4823 ;;                  1    wreg      char 
  4824 ;; Registers used:
  4825 ;;		wreg, fsr1l, fsr1h, fsr2l, fsr2h, status,2, status,0, prodl, prodh, cstack
  4826 ;; Tracked objects:
  4827 ;;		On entry : 0/0
  4828 ;;		On exit  : 0/0
  4829 ;;		Unchanged: 0/0
  4830 ;; Data sizes:     COMRAM   BANK0   BANK1   BANK2   BANK3   BANK4   BANK5   BANK6   BANK7   BANK8   BANK9  BANK10  BANK1
      +1  BANK12  BANK13  BANK14
  4831 ;;      Params:         0       0       4       0       0       0       0       0       0       0       0       0       
      +0       0       0       0
  4832 ;;      Locals:         0       1       0       0       0       0       0       0       0       0       0       0       
      +0       0       0       0
  4833 ;;      Temps:          0       0       0       0       0       0       0       0       0       0       0       0       
      +0       0       0       0
  4834 ;;      Totals:         0       1       4       0       0       0       0       0       0       0       0       0       
      +0       0       0       0
  4835 ;;Total ram usage:        5 bytes
  4836 ;; Hardware stack levels used:    1
  4837 ;; Hardware stack levels required when called:   12
  4838 ;; This function calls:
  4839 ;;		_recv_msg
  4840 ;; This function is called by:
  4841 ;;		_main
  4842 ;; This function uses a non-reentrant model
  4843 ;;
  4844                           
  4845                           	psect	text30
  4846  001836                     __ptext30:
  4847                           	opt stack 0
  4848  001836                     _ToMainHigh_recvmsg:
  4849                           	opt stack 18
  4850                           
  4851                           ;incstack = 0
  4852                           ;ToMainHigh_recvmsg@maxlength stored from wreg
  4853  001836  0100               	movlb	0	; () banked
  4854  001838  6FA5               	movwf	ToMainHigh_recvmsg@maxlength& (0+255),b
  4855                           
  4856                           ; BSR set to: 0
  4857                           ;messages.c: 142: return (recv_msg(&ToMainHigh_MQ, maxlength, msgtype, data));
  4858  00183A  0102               	movlb	2	; () banked
  4859  00183C  0E02               	movlw	high _ToMainHigh_MQ
  4860  00183E  0100               	movlb	0	; () banked
  4861  001840  6F9D               	movwf	(recv_msg@qptr+1)& (0+255),b
  4862  001842  0102               	movlb	2	; () banked
  4863  001844  0E00               	movlw	low _ToMainHigh_MQ
  4864  001846  0100               	movlb	0	; () banked
  4865  001848  6F9C               	movwf	recv_msg@qptr& (0+255),b
  4866  00184A  C0A5  F09E         	movff	ToMainHigh_recvmsg@maxlength,recv_msg@maxlength
  4867  00184E  0101               	movlb	1	; () banked
  4868  001850  0100               	movlb	0	; () banked
  4869  001852  C190  F0A0         	movff	ToMainHigh_recvmsg@msgtype+1,recv_msg@msgtype+1
  4870  001856  0101               	movlb	1	; () banked
  4871  001858  0100               	movlb	0	; () banked
  4872  00185A  C18F  F09F         	movff	ToMainHigh_recvmsg@msgtype,recv_msg@msgtype
  4873  00185E  0101               	movlb	1	; () banked
  4874  001860  0100               	movlb	0	; () banked
  4875  001862  C192  F0A2         	movff	ToMainHigh_recvmsg@data+1,recv_msg@data+1
  4876  001866  0101               	movlb	1	; () banked
  4877  001868  0100               	movlb	0	; () banked
  4878  00186A  C191  F0A1         	movff	ToMainHigh_recvmsg@data,recv_msg@data
  4879  00186E  ECDC  F005         	call	_recv_msg	;wreg free
  4880  001872  0012               	return	
  4881  001874                     __end_of_ToMainHigh_recvmsg:
  4882                           	opt stack 0
  4883                           tblptru	equ	0xFF8
  4884                           tblptrh	equ	0xFF7
  4885                           tblptrl	equ	0xFF6
  4886                           tablat	equ	0xFF5
  4887                           prodh	equ	0xFF4
  4888                           prodl	equ	0xFF3
  4889                           intcon	equ	0xFF2
  4890                           postinc0	equ	0xFEE
  4891                           wreg	equ	0xFE8
  4892                           indf1	equ	0xFE7
  4893                           fsr1h	equ	0xFE2
  4894                           fsr1l	equ	0xFE1
  4895                           indf2	equ	0xFDF
  4896                           postinc2	equ	0xFDE
  4897                           postdec2	equ	0xFDD
  4898                           fsr2h	equ	0xFDA
  4899                           fsr2l	equ	0xFD9
  4900                           status	equ	0xFD8
  4901                           
  4902 ;; *************** function _recv_msg *****************
  4903 ;; Defined at:
  4904 ;;		line 64 in file "../src/messages.c"
  4905 ;; Parameters:    Size  Location     Type
  4906 ;;  qptr            2   60[BANK0 ] PTR struct __msg_queue
  4907 ;;		 -> FromMainHigh_MQ(138), FromMainLow_MQ(138), ToMainHigh_MQ(138), ToMainLow_MQ(138), 
  4908 ;;  maxlength       1   62[BANK0 ] unsigned char 
  4909 ;;  msgtype         2   63[BANK0 ] PTR unsigned char 
  4910 ;;		 -> timer0_int_handler@msgtype(2), uart_transmit_interrupt_handler@msgtype(1), i2c_int_handler@msg_to_send(1), main@
      +msgtype(1), 
  4911 ;;  data            2   65[BANK0 ] PTR void 
  4912 ;;		 -> NULL(0), timer0_int_handler@val(2), uart_transmit_interrupt_handler@data(14), main@msgbuffer(15), 
  4913 ;;		 -> main@ic(38), 
  4914 ;; Auto vars:     Size  Location     Type
  4915 ;;  qmsg            2    3[BANK1 ] PTR struct __msg
  4916 ;;		 -> FromMainLow_MQ.queue(136), FromMainHigh_MQ.queue(136), ToMainHigh_MQ.queue(136), ToMainLow_MQ.queue(136), 
  4917 ;;		 -> FromMainHigh_MQ(138), FromMainLow_MQ(138), ToMainHigh_MQ(138), ToMainLow_MQ(138), 
  4918 ;;  tlength         2    1[BANK1 ] unsigned int 
  4919 ;;  slot            1    0[BANK1 ] unsigned char 
  4920 ;; Return value:  Size  Location     Type
  4921 ;;                  1    wreg      char 
  4922 ;; Registers used:
  4923 ;;		wreg, fsr1l, fsr1h, fsr2l, fsr2h, status,2, status,0, prodl, prodh, cstack
  4924 ;; Tracked objects:
  4925 ;;		On entry : 0/0
  4926 ;;		On exit  : 0/0
  4927 ;;		Unchanged: 0/0
  4928 ;; Data sizes:     COMRAM   BANK0   BANK1   BANK2   BANK3   BANK4   BANK5   BANK6   BANK7   BANK8   BANK9  BANK10  BANK1
      +1  BANK12  BANK13  BANK14
  4929 ;;      Params:         0       7       0       0       0       0       0       0       0       0       0       0       
      +0       0       0       0
  4930 ;;      Locals:         0       0       5       0       0       0       0       0       0       0       0       0       
      +0       0       0       0
  4931 ;;      Temps:          0       2       0       0       0       0       0       0       0       0       0       0       
      +0       0       0       0
  4932 ;;      Totals:         0       9       5       0       0       0       0       0       0       0       0       0       
      +0       0       0       0
  4933 ;;Total ram usage:       14 bytes
  4934 ;; Hardware stack levels used:    1
  4935 ;; Hardware stack levels required when called:   11
  4936 ;; This function calls:
  4937 ;;		_memcpy
  4938 ;; This function is called by:
  4939 ;;		_ToMainLow_recvmsg
  4940 ;;		_ToMainHigh_recvmsg
  4941 ;; This function uses a non-reentrant model
  4942 ;;
  4943                           
  4944                           	psect	text31
  4945  000BB8                     __ptext31:
  4946                           	opt stack 0
  4947  000BB8                     _recv_msg:
  4948                           	opt stack 18
  4949                           
  4950                           ;messages.c: 65: unsigned char slot;
  4951                           ;messages.c: 69: msg *qmsg;
  4952                           ;messages.c: 70: size_t tlength;
  4953                           ;messages.c: 73: slot = qptr->cur_read_ind;
  4954                           
  4955                           ;incstack = 0
  4956  000BB8  0100               	movlb	0	; () banked
  4957  000BBA  EE20 F089          	lfsr	2,137
  4958  000BBE  0100               	movlb	0	; () banked
  4959  000BC0  519C               	movf	recv_msg@qptr& (0+255),w,b
  4960  000BC2  26D9               	addwf	fsr2l,f,c
  4961  000BC4  0100               	movlb	0	; () banked
  4962  000BC6  519D               	movf	(recv_msg@qptr+1)& (0+255),w,b
  4963  000BC8  22DA               	addwfc	fsr2h,f,c
  4964  000BCA  50DF               	movf	indf2,w,c
  4965  000BCC  0101               	movlb	1	; () banked
  4966  000BCE  6F8A               	movwf	recv_msg@slot& (0+255),b
  4967                           
  4968                           ; BSR set to: 1
  4969                           ;messages.c: 74: qmsg = &(qptr->queue[slot]);
  4970  000BD0  0101               	movlb	1	; () banked
  4971  000BD2  518A               	movf	recv_msg@slot& (0+255),w,b
  4972  000BD4  0D11               	mullw	17
  4973  000BD6  50F3               	movf	prodl,w,c
  4974  000BD8  0100               	movlb	0	; () banked
  4975  000BDA  259C               	addwf	recv_msg@qptr& (0+255),w,b
  4976  000BDC  0101               	movlb	1	; () banked
  4977  000BDE  6F8D               	movwf	recv_msg@qmsg& (0+255),b
  4978  000BE0  50F4               	movf	prodh,w,c
  4979  000BE2  0100               	movlb	0	; () banked
  4980  000BE4  219D               	addwfc	(recv_msg@qptr+1)& (0+255),w,b
  4981  000BE6  0101               	movlb	1	; () banked
  4982  000BE8  6F8E               	movwf	(recv_msg@qmsg+1)& (0+255),b
  4983                           
  4984                           ; BSR set to: 1
  4985                           ;messages.c: 75: if (qmsg->full == 1) {
  4986  000BEA  0E01               	movlw	1
  4987  000BEC  C18D  FFD9         	movff	recv_msg@qmsg,fsr2l
  4988  000BF0  C18E  FFDA         	movff	recv_msg@qmsg+1,fsr2h
  4989  000BF4  62DF               	cpfseq	indf2,c
  4990  000BF6  D06D               	goto	l3647
  4991                           
  4992                           ; BSR set to: 1
  4993                           ;messages.c: 77: if (qmsg->length > maxlength) {
  4994  000BF8  0101               	movlb	1	; () banked
  4995  000BFA  EE20 F001          	lfsr	2,1
  4996  000BFE  0101               	movlb	1	; () banked
  4997  000C00  518D               	movf	recv_msg@qmsg& (0+255),w,b
  4998  000C02  26D9               	addwf	fsr2l,f,c
  4999  000C04  0101               	movlb	1	; () banked
  5000  000C06  518E               	movf	(recv_msg@qmsg+1)& (0+255),w,b
  5001  000C08  22DA               	addwfc	fsr2h,f,c
  5002  000C0A  50DF               	movf	indf2,w,c
  5003  000C0C  0100               	movlb	0	; () banked
  5004  000C0E  5D9E               	subwf	recv_msg@maxlength& (0+255),w,b
  5005  000C10  B0D8               	btfsc	status,0,c
  5006  000C12  D002               	goto	l3631
  5007                           
  5008                           ; BSR set to: 0
  5009                           ;messages.c: 78: return (-3);
  5010  000C14  0EFD               	movlw	253
  5011  000C16  0012               	return	
  5012  000C18                     l3631:
  5013                           
  5014                           ; BSR set to: 0
  5015                           ;messages.c: 79: }
  5016                           ;messages.c: 81: tlength = qmsg->length;
  5017  000C18  0101               	movlb	1	; () banked
  5018  000C1A  EE20 F001          	lfsr	2,1
  5019  000C1E  0101               	movlb	1	; () banked
  5020  000C20  518D               	movf	recv_msg@qmsg& (0+255),w,b
  5021  000C22  26D9               	addwf	fsr2l,f,c
  5022  000C24  0101               	movlb	1	; () banked
  5023  000C26  518E               	movf	(recv_msg@qmsg+1)& (0+255),w,b
  5024  000C28  22DA               	addwfc	fsr2h,f,c
  5025  000C2A  50DF               	movf	indf2,w,c
  5026  000C2C  0100               	movlb	0	; () banked
  5027  000C2E  6FA3               	movwf	??_recv_msg& (0+255),b
  5028  000C30  0100               	movlb	0	; () banked
  5029  000C32  51A3               	movf	??_recv_msg& (0+255),w,b
  5030  000C34  0101               	movlb	1	; () banked
  5031  000C36  6F8B               	movwf	recv_msg@tlength& (0+255),b
  5032  000C38  0101               	movlb	1	; () banked
  5033  000C3A  6B8C               	clrf	(recv_msg@tlength+1)& (0+255),b
  5034                           
  5035                           ; BSR set to: 1
  5036                           ;messages.c: 82: memcpy(data, qmsg->data, tlength);
  5037  000C3C  0100               	movlb	0	; () banked
  5038  000C3E  C0A2  F093         	movff	recv_msg@data+1,memcpy@d1+1
  5039  000C42  0100               	movlb	0	; () banked
  5040  000C44  C0A1  F092         	movff	recv_msg@data,memcpy@d1
  5041  000C48  0E03               	movlw	3
  5042  000C4A  0101               	movlb	1	; () banked
  5043  000C4C  258D               	addwf	recv_msg@qmsg& (0+255),w,b
  5044  000C4E  0100               	movlb	0	; () banked
  5045  000C50  6FA3               	movwf	??_recv_msg& (0+255),b
  5046  000C52  0E00               	movlw	0
  5047  000C54  0101               	movlb	1	; () banked
  5048  000C56  218E               	addwfc	(recv_msg@qmsg+1)& (0+255),w,b
  5049  000C58  0100               	movlb	0	; () banked
  5050  000C5A  6FA4               	movwf	(??_recv_msg+1)& (0+255),b
  5051  000C5C  C0A3  F094         	movff	??_recv_msg,memcpy@s1
  5052  000C60  C0A4  F095         	movff	??_recv_msg+1,memcpy@s1+1
  5053  000C64  C18B  F096         	movff	recv_msg@tlength,memcpy@n
  5054  000C68  C18C  F097         	movff	recv_msg@tlength+1,memcpy@n+1
  5055  000C6C  EC6D  F00B         	call	_memcpy	;wreg free
  5056                           
  5057                           ;messages.c: 88: qptr->cur_read_ind = (qptr->cur_read_ind + 1) % 8;
  5058  000C70  0100               	movlb	0	; () banked
  5059  000C72  EE20 F089          	lfsr	2,137
  5060  000C76  0100               	movlb	0	; () banked
  5061  000C78  519C               	movf	recv_msg@qptr& (0+255),w,b
  5062  000C7A  26D9               	addwf	fsr2l,f,c
  5063  000C7C  0100               	movlb	0	; () banked
  5064  000C7E  519D               	movf	(recv_msg@qptr+1)& (0+255),w,b
  5065  000C80  22DA               	addwfc	fsr2h,f,c
  5066  000C82  0100               	movlb	0	; () banked
  5067  000C84  EE10 F089          	lfsr	1,137
  5068  000C88  0100               	movlb	0	; () banked
  5069  000C8A  519C               	movf	recv_msg@qptr& (0+255),w,b
  5070  000C8C  26E1               	addwf	fsr1l,f,c
  5071  000C8E  0100               	movlb	0	; () banked
  5072  000C90  519D               	movf	(recv_msg@qptr+1)& (0+255),w,b
  5073  000C92  22E2               	addwfc	fsr1h,f,c
  5074  000C94  50E7               	movf	indf1,w,c
  5075  000C96  0100               	movlb	0	; () banked
  5076  000C98  6FA3               	movwf	??_recv_msg& (0+255),b
  5077  000C9A  0100               	movlb	0	; () banked
  5078  000C9C  29A3               	incf	??_recv_msg& (0+255),w,b
  5079  000C9E  0B07               	andlw	7
  5080  000CA0  6EDF               	movwf	indf2,c
  5081                           
  5082                           ; BSR set to: 0
  5083                           ;messages.c: 90: (*msgtype) = qmsg->msgtype;
  5084  000CA2  0101               	movlb	1	; () banked
  5085  000CA4  EE20 F002          	lfsr	2,2
  5086  000CA8  0101               	movlb	1	; () banked
  5087  000CAA  518D               	movf	recv_msg@qmsg& (0+255),w,b
  5088  000CAC  26D9               	addwf	fsr2l,f,c
  5089  000CAE  0101               	movlb	1	; () banked
  5090  000CB0  518E               	movf	(recv_msg@qmsg+1)& (0+255),w,b
  5091  000CB2  22DA               	addwfc	fsr2h,f,c
  5092  000CB4  C09F  FFE1         	movff	recv_msg@msgtype,fsr1l
  5093  000CB8  C0A0  FFE2         	movff	recv_msg@msgtype+1,fsr1h
  5094  000CBC  CFDF FFE7          	movff	indf2,indf1
  5095                           
  5096                           ; BSR set to: 1
  5097                           ;messages.c: 92: qmsg->full = 0;
  5098  000CC0  C18D  FFD9         	movff	recv_msg@qmsg,fsr2l
  5099  000CC4  C18E  FFDA         	movff	recv_msg@qmsg+1,fsr2h
  5100  000CC8  0E00               	movlw	0
  5101  000CCA  6EDF               	movwf	indf2,c
  5102                           
  5103                           ; BSR set to: 1
  5104                           ;messages.c: 93: return (tlength);
  5105  000CCC  0101               	movlb	1	; () banked
  5106  000CCE  518B               	movf	recv_msg@tlength& (0+255),w,b
  5107  000CD0  0012               	return	
  5108  000CD2                     l3647:
  5109                           
  5110                           ; BSR set to: 1
  5111                           ;messages.c: 95: return (-4);
  5112  000CD2  0EFC               	movlw	252
  5113  000CD4  0012               	return	
  5114  000CD6                     __end_of_recv_msg:
  5115                           	opt stack 0
  5116                           tblptru	equ	0xFF8
  5117                           tblptrh	equ	0xFF7
  5118                           tblptrl	equ	0xFF6
  5119                           tablat	equ	0xFF5
  5120                           prodh	equ	0xFF4
  5121                           prodl	equ	0xFF3
  5122                           intcon	equ	0xFF2
  5123                           postinc0	equ	0xFEE
  5124                           wreg	equ	0xFE8
  5125                           indf1	equ	0xFE7
  5126                           fsr1h	equ	0xFE2
  5127                           fsr1l	equ	0xFE1
  5128                           indf2	equ	0xFDF
  5129                           postinc2	equ	0xFDE
  5130                           postdec2	equ	0xFDD
  5131                           fsr2h	equ	0xFDA
  5132                           fsr2l	equ	0xFD9
  5133                           status	equ	0xFD8
  5134                           
  5135 ;; *************** function _memcpy *****************
  5136 ;; Defined at:
  5137 ;;		line 11 in file "C:\Program Files (x86)\Microchip\xc8\v1.32\sources\common\memcpy.c"
  5138 ;; Parameters:    Size  Location     Type
  5139 ;;  d1              2   50[BANK0 ] PTR void 
  5140 ;;		 -> FromMainLow_MQ.queue(136), FromMainHigh_MQ.queue(136), ToMainHigh_MQ.queue(136), ToMainLow_MQ.queue(136), 
  5141 ;;		 -> NULL(0), timer0_int_handler@val(2), uart_transmit_interrupt_handler@data(14), FromMainHigh_MQ(138), 
  5142 ;;		 -> FromMainLow_MQ(138), ToMainHigh_MQ(138), ToMainLow_MQ(138), main@msgbuffer(15), 
  5143 ;;		 -> main@ic(38), 
  5144 ;;  s1              2   52[BANK0 ] PTR const void 
  5145 ;;		 -> ToMainLow_MQ.data(14), ToMainHigh_MQ.data(14), FromMainLow_MQ.data(14), FromMainHigh_MQ.data(14), 
  5146 ;;		 -> ToMainLow_MQ.queue.data(14), ToMainHigh_MQ.queue.data(14), FromMainHigh_MQ.queue.data(14), FromMainLow_MQ.queue.
      +data(14), 
  5147 ;;		 -> NULL(0), timer0_int_handler@val(2), timer1_lthread@i2c_msg(14), uart_receive_interrupt_handler@message_count(1),
      + 
  5148 ;;		 -> uart_receive_interrupt_handler@bad_checksum_message(3), uart_receive_interrupt_handler@gooey_uart_center(14), ua
      +rt_receive_interrupt_handler@bad_counter_id(2), uart_receive_interrupt_handler@bad_end_id(1), 
  5149 ;;		 -> uart_receive_interrupt_handler@bad_start_id(1), FromMainHigh_MQ(138), FromMainLow_MQ(138), ToMainHigh_MQ(138), 
  5150 ;;		 -> ToMainLow_MQ(138), main@uart_response(14), main@sensor_data(14), main@ic(38), 
  5151 ;;		 -> main@t1thread_data(17), 
  5152 ;;  n               2   54[BANK0 ] unsigned int 
  5153 ;; Auto vars:     Size  Location     Type
  5154 ;;  s               2   58[BANK0 ] PTR const unsigned char 
  5155 ;;		 -> ToMainLow_MQ.data(14), ToMainHigh_MQ.data(14), FromMainLow_MQ.data(14), FromMainHigh_MQ.data(14), 
  5156 ;;		 -> ToMainLow_MQ.queue.data(14), ToMainHigh_MQ.queue.data(14), FromMainHigh_MQ.queue.data(14), FromMainLow_MQ.queue.
      +data(14), 
  5157 ;;		 -> NULL(0), timer0_int_handler@val(2), timer1_lthread@i2c_msg(14), uart_receive_interrupt_handler@message_count(1),
      + 
  5158 ;;		 -> uart_receive_interrupt_handler@bad_checksum_message(3), uart_receive_interrupt_handler@gooey_uart_center(14), ua
      +rt_receive_interrupt_handler@bad_counter_id(2), uart_receive_interrupt_handler@bad_end_id(1), 
  5159 ;;		 -> uart_receive_interrupt_handler@bad_start_id(1), FromMainHigh_MQ(138), FromMainLow_MQ(138), ToMainHigh_MQ(138), 
  5160 ;;		 -> ToMainLow_MQ(138), main@uart_response(14), main@sensor_data(14), main@ic(38), 
  5161 ;;		 -> main@t1thread_data(17), 
  5162 ;;  d               2   56[BANK0 ] PTR unsigned char 
  5163 ;;		 -> FromMainLow_MQ.queue(136), FromMainHigh_MQ.queue(136), ToMainHigh_MQ.queue(136), ToMainLow_MQ.queue(136), 
  5164 ;;		 -> NULL(0), timer0_int_handler@val(2), uart_transmit_interrupt_handler@data(14), FromMainHigh_MQ(138), 
  5165 ;;		 -> FromMainLow_MQ(138), ToMainHigh_MQ(138), ToMainLow_MQ(138), main@msgbuffer(15), 
  5166 ;;		 -> main@ic(38), 
  5167 ;; Return value:  Size  Location     Type
  5168 ;;                  2   50[BANK0 ] PTR void 
  5169 ;; Registers used:
  5170 ;;		wreg, fsr1l, fsr1h, fsr2l, fsr2h, status,2, status,0
  5171 ;; Tracked objects:
  5172 ;;		On entry : 0/0
  5173 ;;		On exit  : 0/0
  5174 ;;		Unchanged: 0/0
  5175 ;; Data sizes:     COMRAM   BANK0   BANK1   BANK2   BANK3   BANK4   BANK5   BANK6   BANK7   BANK8   BANK9  BANK10  BANK1
      +1  BANK12  BANK13  BANK14
  5176 ;;      Params:         0       6       0       0       0       0       0       0       0       0       0       0       
      +0       0       0       0
  5177 ;;      Locals:         0       4       0       0       0       0       0       0       0       0       0       0       
      +0       0       0       0
  5178 ;;      Temps:          0       0       0       0       0       0       0       0       0       0       0       0       
      +0       0       0       0
  5179 ;;      Totals:         0      10       0       0       0       0       0       0       0       0       0       0       
      +0       0       0       0
  5180 ;;Total ram usage:       10 bytes
  5181 ;; Hardware stack levels used:    1
  5182 ;; Hardware stack levels required when called:   10
  5183 ;; This function calls:
  5184 ;;		Nothing
  5185 ;; This function is called by:
  5186 ;;		_send_msg
  5187 ;;		_recv_msg
  5188 ;; This function uses a non-reentrant model
  5189 ;;
  5190                           
  5191                           	psect	text32
  5192  0016DA                     __ptext32:
  5193                           	opt stack 0
  5194  0016DA                     _memcpy:
  5195                           	opt stack 16
  5196                           
  5197                           ;incstack = 0
  5198  0016DA  0100               	movlb	0	; () banked
  5199  0016DC  C095  F09B         	movff	memcpy@s1+1,memcpy@s+1
  5200  0016E0  0100               	movlb	0	; () banked
  5201  0016E2  C094  F09A         	movff	memcpy@s1,memcpy@s
  5202  0016E6  0100               	movlb	0	; () banked
  5203  0016E8  C093  F099         	movff	memcpy@d1+1,memcpy@d+1
  5204  0016EC  0100               	movlb	0	; () banked
  5205  0016EE  C092  F098         	movff	memcpy@d1,memcpy@d
  5206  0016F2  D010               	goto	l3405
  5207  0016F4                     l3399:
  5208                           
  5209                           ; BSR set to: 0
  5210  0016F4  C09A  FFD9         	movff	memcpy@s,fsr2l
  5211  0016F8  C09B  FFDA         	movff	memcpy@s+1,fsr2h
  5212  0016FC  C098  FFE1         	movff	memcpy@d,fsr1l
  5213  001700  C099  FFE2         	movff	memcpy@d+1,fsr1h
  5214  001704  CFDF FFE7          	movff	indf2,indf1
  5215                           
  5216                           ; BSR set to: 0
  5217  001708  0100               	movlb	0	; () banked
  5218  00170A  4B9A               	infsnz	memcpy@s& (0+255),f,b
  5219  00170C  2B9B               	incf	(memcpy@s+1)& (0+255),f,b
  5220                           
  5221                           ; BSR set to: 0
  5222  00170E  0100               	movlb	0	; () banked
  5223  001710  4B98               	infsnz	memcpy@d& (0+255),f,b
  5224  001712  2B99               	incf	(memcpy@d+1)& (0+255),f,b
  5225  001714                     l3405:
  5226                           
  5227                           ; BSR set to: 0
  5228  001714  0100               	movlb	0	; () banked
  5229  001716  0796               	decf	memcpy@n& (0+255),f,b
  5230  001718  A0D8               	btfss	status,0,c
  5231  00171A  0797               	decf	(memcpy@n+1)& (0+255),f,b
  5232  00171C  0100               	movlb	0	; () banked
  5233  00171E  2996               	incf	memcpy@n& (0+255),w,b
  5234  001720  B4D8               	btfsc	status,2,c
  5235  001722  2997               	incf	(memcpy@n+1)& (0+255),w,b
  5236  001724  B4D8               	btfsc	status,2,c
  5237                           
  5238                           ; BSR set to: 0
  5239                           
  5240                           ; BSR set to: 0
  5241                           ;	Return value of _memcpy is never used
  5242  001726  0012               	return	
  5243  001728  D7E5               	goto	l3399
  5244  00172A                     __end_of_memcpy:
  5245                           	opt stack 0
  5246                           tblptru	equ	0xFF8
  5247                           tblptrh	equ	0xFF7
  5248                           tblptrl	equ	0xFF6
  5249                           tablat	equ	0xFF5
  5250                           prodh	equ	0xFF4
  5251                           prodl	equ	0xFF3
  5252                           intcon	equ	0xFF2
  5253                           postinc0	equ	0xFEE
  5254                           wreg	equ	0xFE8
  5255                           indf1	equ	0xFE7
  5256                           fsr1h	equ	0xFE2
  5257                           fsr1l	equ	0xFE1
  5258                           indf2	equ	0xFDF
  5259                           postinc2	equ	0xFDE
  5260                           postdec2	equ	0xFDD
  5261                           fsr2h	equ	0xFDA
  5262                           fsr2l	equ	0xFD9
  5263                           status	equ	0xFD8
  5264                           
  5265 ;; *************** function _OpenTimer1 *****************
  5266 ;; Defined at:
  5267 ;;		line 43 in file "C:\Program Files (x86)\Microchip\xc8\v1.32\sources\pic18\plib\Timers\t1open.c"
  5268 ;; Parameters:    Size  Location     Type
  5269 ;;  config          1    wreg     unsigned char 
  5270 ;;  config1         1   50[BANK0 ] unsigned char 
  5271 ;; Auto vars:     Size  Location     Type
  5272 ;;  config          1   52[BANK0 ] unsigned char 
  5273 ;; Return value:  Size  Location     Type
  5274 ;;		None               void
  5275 ;; Registers used:
  5276 ;;		wreg, status,2, status,0
  5277 ;; Tracked objects:
  5278 ;;		On entry : 0/0
  5279 ;;		On exit  : 0/0
  5280 ;;		Unchanged: 0/0
  5281 ;; Data sizes:     COMRAM   BANK0   BANK1   BANK2   BANK3   BANK4   BANK5   BANK6   BANK7   BANK8   BANK9  BANK10  BANK1
      +1  BANK12  BANK13  BANK14
  5282 ;;      Params:         0       1       0       0       0       0       0       0       0       0       0       0       
      +0       0       0       0
  5283 ;;      Locals:         0       1       0       0       0       0       0       0       0       0       0       0       
      +0       0       0       0
  5284 ;;      Temps:          0       1       0       0       0       0       0       0       0       0       0       0       
      +0       0       0       0
  5285 ;;      Totals:         0       3       0       0       0       0       0       0       0       0       0       0       
      +0       0       0       0
  5286 ;;Total ram usage:        3 bytes
  5287 ;; Hardware stack levels used:    1
  5288 ;; Hardware stack levels required when called:   10
  5289 ;; This function calls:
  5290 ;;		Nothing
  5291 ;; This function is called by:
  5292 ;;		_main
  5293 ;; This function uses a non-reentrant model
  5294 ;;
  5295                           
  5296                           	psect	text33
  5297  0018EE                     __ptext33:
  5298                           	opt stack 0
  5299  0018EE                     _OpenTimer1:
  5300                           	opt stack 20
  5301                           
  5302                           ; BSR set to: 0
  5303                           ;incstack = 0
  5304                           ;OpenTimer1@config stored from wreg
  5305  0018EE  0100               	movlb	0	; () banked
  5306  0018F0  6F94               	movwf	OpenTimer1@config& (0+255),b
  5307                           
  5308                           ; BSR set to: 0
  5309  0018F2  0100               	movlb	0	; () banked
  5310  0018F4  5192               	movf	OpenTimer1@config1& (0+255),w,b
  5311  0018F6  0BF3               	andlw	243
  5312  0018F8  6E9A               	movwf	3994,c	;volatile
  5313  0018FA  C094  F093         	movff	OpenTimer1@config,??_OpenTimer1
  5314  0018FE  0E7F               	movlw	127
  5315  001900  0100               	movlb	0	; () banked
  5316  001902  1793               	andwf	??_OpenTimer1& (0+255),f,b
  5317  001904  0100               	movlb	0	; () banked
  5318  001906  90D8               	bcf	status,0,c
  5319  001908  3593               	rlcf	??_OpenTimer1& (0+255),w,b
  5320  00190A  6ECD               	movwf	4045,c	;volatile
  5321                           
  5322                           ; BSR set to: 0
  5323  00190C  0E00               	movlw	0
  5324  00190E  6ECF               	movwf	4047,c	;volatile
  5325                           
  5326                           ; BSR set to: 0
  5327  001910  0E00               	movlw	0
  5328  001912  6ECE               	movwf	4046,c	;volatile
  5329                           
  5330                           ; BSR set to: 0
  5331  001914  909E               	bcf	3998,0,c	;volatile
  5332                           
  5333                           ; BSR set to: 0
  5334  001916  0100               	movlb	0	; () banked
  5335  001918  AF94               	btfss	OpenTimer1@config& (0+255),7,b
  5336  00191A  D002               	goto	l593
  5337                           
  5338                           ; BSR set to: 0
  5339  00191C  809D               	bsf	3997,0,c	;volatile
  5340  00191E  D001               	goto	l594
  5341  001920                     l593:
  5342                           
  5343                           ; BSR set to: 0
  5344  001920  909D               	bcf	3997,0,c	;volatile
  5345  001922                     l594:
  5346                           
  5347                           ; BSR set to: 0
  5348  001922  BE9A               	btfsc	3994,7,c	;volatile
  5349                           
  5350                           ; BSR set to: 0
  5351  001924  869A               	bsf	3994,3,c	;volatile
  5352                           
  5353                           ; BSR set to: 0
  5354  001926  80CD               	bsf	4045,0,c	;volatile
  5355                           
  5356                           ; BSR set to: 0
  5357  001928  0012               	return	
  5358  00192A                     __end_of_OpenTimer1:
  5359                           	opt stack 0
  5360                           tblptru	equ	0xFF8
  5361                           tblptrh	equ	0xFF7
  5362                           tblptrl	equ	0xFF6
  5363                           tablat	equ	0xFF5
  5364                           prodh	equ	0xFF4
  5365                           prodl	equ	0xFF3
  5366                           intcon	equ	0xFF2
  5367                           postinc0	equ	0xFEE
  5368                           wreg	equ	0xFE8
  5369                           indf1	equ	0xFE7
  5370                           fsr1h	equ	0xFE2
  5371                           fsr1l	equ	0xFE1
  5372                           indf2	equ	0xFDF
  5373                           postinc2	equ	0xFDE
  5374                           postdec2	equ	0xFDD
  5375                           fsr2h	equ	0xFDA
  5376                           fsr2l	equ	0xFD9
  5377                           status	equ	0xFD8
  5378                           
  5379 ;; *************** function _OpenTimer0 *****************
  5380 ;; Defined at:
  5381 ;;		line 18 in file "C:\Program Files (x86)\Microchip\xc8\v1.32\sources\pic18\plib\Timers\t0open.c"
  5382 ;; Parameters:    Size  Location     Type
  5383 ;;  config          1    wreg     unsigned char 
  5384 ;; Auto vars:     Size  Location     Type
  5385 ;;  config          1   50[BANK0 ] unsigned char 
  5386 ;; Return value:  Size  Location     Type
  5387 ;;		None               void
  5388 ;; Registers used:
  5389 ;;		wreg, status,2, status,0
  5390 ;; Tracked objects:
  5391 ;;		On entry : 0/0
  5392 ;;		On exit  : 0/0
  5393 ;;		Unchanged: 0/0
  5394 ;; Data sizes:     COMRAM   BANK0   BANK1   BANK2   BANK3   BANK4   BANK5   BANK6   BANK7   BANK8   BANK9  BANK10  BANK1
      +1  BANK12  BANK13  BANK14
  5395 ;;      Params:         0       0       0       0       0       0       0       0       0       0       0       0       
      +0       0       0       0
  5396 ;;      Locals:         0       1       0       0       0       0       0       0       0       0       0       0       
      +0       0       0       0
  5397 ;;      Temps:          0       0       0       0       0       0       0       0       0       0       0       0       
      +0       0       0       0
  5398 ;;      Totals:         0       1       0       0       0       0       0       0       0       0       0       0       
      +0       0       0       0
  5399 ;;Total ram usage:        1 bytes
  5400 ;; Hardware stack levels used:    1
  5401 ;; Hardware stack levels required when called:   10
  5402 ;; This function calls:
  5403 ;;		Nothing
  5404 ;; This function is called by:
  5405 ;;		_main
  5406 ;; This function uses a non-reentrant model
  5407 ;;
  5408                           
  5409                           	psect	text34
  5410  001AD2                     __ptext34:
  5411                           	opt stack 0
  5412  001AD2                     _OpenTimer0:
  5413                           	opt stack 20
  5414                           
  5415                           ; BSR set to: 0
  5416                           ;incstack = 0
  5417                           ;OpenTimer0@config stored from wreg
  5418  001AD2  0100               	movlb	0	; () banked
  5419  001AD4  6F92               	movwf	OpenTimer0@config& (0+255),b
  5420                           
  5421                           ; BSR set to: 0
  5422  001AD6  0100               	movlb	0	; () banked
  5423  001AD8  5192               	movf	OpenTimer0@config& (0+255),w,b
  5424  001ADA  0B7F               	andlw	127
  5425  001ADC  6ED5               	movwf	4053,c	;volatile
  5426                           
  5427                           ; BSR set to: 0
  5428  001ADE  0E00               	movlw	0
  5429  001AE0  6ED7               	movwf	4055,c	;volatile
  5430                           
  5431                           ; BSR set to: 0
  5432  001AE2  0E00               	movlw	0
  5433  001AE4  6ED6               	movwf	4054,c	;volatile
  5434                           
  5435                           ; BSR set to: 0
  5436  001AE6  94F2               	bcf	intcon,2,c	;volatile
  5437                           
  5438                           ; BSR set to: 0
  5439  001AE8  0100               	movlb	0	; () banked
  5440  001AEA  AF92               	btfss	OpenTimer0@config& (0+255),7,b
  5441  001AEC  D002               	goto	l565
  5442                           
  5443                           ; BSR set to: 0
  5444  001AEE  8AF2               	bsf	intcon,5,c	;volatile
  5445  001AF0  D001               	goto	l566
  5446  001AF2                     l565:
  5447                           
  5448                           ; BSR set to: 0
  5449  001AF2  9AF2               	bcf	intcon,5,c	;volatile
  5450  001AF4                     l566:
  5451                           
  5452                           ; BSR set to: 0
  5453  001AF4  8ED5               	bsf	4053,7,c	;volatile
  5454                           
  5455                           ; BSR set to: 0
  5456  001AF6  0012               	return	
  5457  001AF8                     __end_of_OpenTimer0:
  5458                           	opt stack 0
  5459                           tblptru	equ	0xFF8
  5460                           tblptrh	equ	0xFF7
  5461                           tblptrl	equ	0xFF6
  5462                           tablat	equ	0xFF5
  5463                           prodh	equ	0xFF4
  5464                           prodl	equ	0xFF3
  5465                           intcon	equ	0xFF2
  5466                           postinc0	equ	0xFEE
  5467                           wreg	equ	0xFE8
  5468                           indf1	equ	0xFE7
  5469                           fsr1h	equ	0xFE2
  5470                           fsr1l	equ	0xFE1
  5471                           indf2	equ	0xFDF
  5472                           postinc2	equ	0xFDE
  5473                           postdec2	equ	0xFDD
  5474                           fsr2h	equ	0xFDA
  5475                           fsr2l	equ	0xFD9
  5476                           status	equ	0xFD8
  5477                           
  5478 ;; *************** function _InterruptHandlerLow *****************
  5479 ;; Defined at:
  5480 ;;		line 131 in file "../src/interrupts.c"
  5481 ;; Parameters:    Size  Location     Type
  5482 ;;		None
  5483 ;; Auto vars:     Size  Location     Type
  5484 ;;		None
  5485 ;; Return value:  Size  Location     Type
  5486 ;;		None               void
  5487 ;; Registers used:
  5488 ;;		wreg, fsr1l, fsr1h, fsr2l, fsr2h, status,2, status,0, prodl, prodh, cstack
  5489 ;; Tracked objects:
  5490 ;;		On entry : 0/0
  5491 ;;		On exit  : 0/0
  5492 ;;		Unchanged: 0/0
  5493 ;; Data sizes:     COMRAM   BANK0   BANK1   BANK2   BANK3   BANK4   BANK5   BANK6   BANK7   BANK8   BANK9  BANK10  BANK1
      +1  BANK12  BANK13  BANK14
  5494 ;;      Params:         0       0       0       0       0       0       0       0       0       0       0       0       
      +0       0       0       0
  5495 ;;      Locals:         0       0       0       0       0       0       0       0       0       0       0       0       
      +0       0       0       0
  5496 ;;      Temps:         17       0       0       0       0       0       0       0       0       0       0       0       
      +0       0       0       0
  5497 ;;      Totals:        17       0       0       0       0       0       0       0       0       0       0       0       
      +0       0       0       0
  5498 ;;Total ram usage:       17 bytes
  5499 ;; Hardware stack levels used:    1
  5500 ;; Hardware stack levels required when called:    9
  5501 ;; This function calls:
  5502 ;;		_timer1_int_handler
  5503 ;;		_uart_receive_interrupt_handler
  5504 ;;		_uart_transmit_interrupt_handler
  5505 ;;		i1_blip1
  5506 ;; This function is called by:
  5507 ;;		Interrupt level 1
  5508 ;; This function uses a non-reentrant model
  5509 ;;
  5510                           
  5511                           	psect	intcodelo
  5512  000018                     __pintcodelo:
  5513                           	opt stack 0
  5514  000018                     _InterruptHandlerLow:
  5515                           	opt stack 16
  5516                           
  5517                           ; BSR set to: 0
  5518                           ;incstack = 0
  5519  000018  CFD8 F039          	movff	status,??_InterruptHandlerLow
  5520  00001C  CFE8 F03A          	movff	wreg,??_InterruptHandlerLow+1
  5521  000020  CFE0 F03B          	movff	bsr,??_InterruptHandlerLow+2
  5522  000024  CFFA F03C          	movff	pclath,??_InterruptHandlerLow+3
  5523  000028  CFFB F03D          	movff	pclatu,??_InterruptHandlerLow+4
  5524  00002C  CFE9 F03E          	movff	fsr0l,??_InterruptHandlerLow+5
  5525  000030  CFEA F03F          	movff	fsr0h,??_InterruptHandlerLow+6
  5526  000034  CFE1 F040          	movff	fsr1l,??_InterruptHandlerLow+7
  5527  000038  CFE2 F041          	movff	fsr1h,??_InterruptHandlerLow+8
  5528  00003C  CFD9 F042          	movff	fsr2l,??_InterruptHandlerLow+9
  5529  000040  CFDA F043          	movff	fsr2h,??_InterruptHandlerLow+10
  5530  000044  CFF3 F044          	movff	prodl,??_InterruptHandlerLow+11
  5531  000048  CFF4 F045          	movff	prodh,??_InterruptHandlerLow+12
  5532  00004C  CFF6 F046          	movff	tblptrl,??_InterruptHandlerLow+13
  5533  000050  CFF7 F047          	movff	tblptrh,??_InterruptHandlerLow+14
  5534  000054  CFF8 F048          	movff	tblptru,??_InterruptHandlerLow+15
  5535  000058  CFF5 F049          	movff	tablat,??_InterruptHandlerLow+16
  5536                           
  5537                           ;interrupts.c: 134: if (PIR1bits.TMR1IF)
  5538  00005C  A09E               	btfss	3998,0,c	;volatile
  5539  00005E  D005               	goto	i1l4165
  5540                           
  5541                           ;interrupts.c: 135: {
  5542                           ;interrupts.c: 136: PIR1bits.TMR1IF = 0;
  5543  000060  909E               	bcf	3998,0,c	;volatile
  5544                           
  5545                           ;interrupts.c: 138: blip1();
  5546  000062  EC17  F00E         	call	i1_blip1	;wreg free
  5547                           
  5548                           ;interrupts.c: 140: timer1_int_handler();
  5549  000066  EC3F  F00D         	call	_timer1_int_handler	;wreg free
  5550  00006A                     i1l4165:
  5551                           
  5552                           ;interrupts.c: 141: }
  5553                           ;interrupts.c: 144: if (PIR2bits.TMR3IF)
  5554  00006A  A2A1               	btfss	4001,1,c	;volatile
  5555  00006C  D003               	goto	i1l4171
  5556                           
  5557                           ;interrupts.c: 145: {
  5558                           ;interrupts.c: 146: PIR2bits.TMR3IF = 0;
  5559  00006E  92A1               	bcf	4001,1,c	;volatile
  5560                           
  5561                           ;interrupts.c: 148: TMR3L = 0;
  5562  000070  0E00               	movlw	0
  5563  000072  6E7A               	movwf	3962,c	;volatile
  5564  000074                     i1l4171:
  5565                           
  5566                           ;interrupts.c: 149: }
  5567                           ;interrupts.c: 152: if (PIR1bits.RCIF) {
  5568  000074  AA9E               	btfss	3998,5,c	;volatile
  5569  000076  D003               	goto	i1l4177
  5570                           
  5571                           ;interrupts.c: 153: PIR1bits.RCIF = 0;
  5572  000078  9A9E               	bcf	3998,5,c	;volatile
  5573                           
  5574                           ;interrupts.c: 157: uart_receive_interrupt_handler();
  5575  00007A  EC51  F004         	call	_uart_receive_interrupt_handler	;wreg free
  5576  00007E                     i1l4177:
  5577                           
  5578                           ;interrupts.c: 158: }
  5579                           ;interrupts.c: 162: if (PIR1bits.TX1IF && PIE1bits.TX1IE)
  5580  00007E  B89E               	btfsc	3998,4,c	;volatile
  5581  000080  A89D               	btfss	3997,4,c	;volatile
  5582  000082  D002               	goto	i1l59
  5583                           
  5584                           ;interrupts.c: 163: {
  5585                           ;interrupts.c: 167: uart_transmit_interrupt_handler();
  5586  000084  EC16  F009         	call	_uart_transmit_interrupt_handler	;wreg free
  5587  000088                     i1l59:
  5588  000088  C049  FFF5         	movff	??_InterruptHandlerLow+16,tablat
  5589  00008C  C048  FFF8         	movff	??_InterruptHandlerLow+15,tblptru
  5590  000090  C047  FFF7         	movff	??_InterruptHandlerLow+14,tblptrh
  5591  000094  C046  FFF6         	movff	??_InterruptHandlerLow+13,tblptrl
  5592  000098  C045  FFF4         	movff	??_InterruptHandlerLow+12,prodh
  5593  00009C  C044  FFF3         	movff	??_InterruptHandlerLow+11,prodl
  5594  0000A0  C043  FFDA         	movff	??_InterruptHandlerLow+10,fsr2h
  5595  0000A4  C042  FFD9         	movff	??_InterruptHandlerLow+9,fsr2l
  5596  0000A8  C041  FFE2         	movff	??_InterruptHandlerLow+8,fsr1h
  5597  0000AC  C040  FFE1         	movff	??_InterruptHandlerLow+7,fsr1l
  5598  0000B0  C03F  FFEA         	movff	??_InterruptHandlerLow+6,fsr0h
  5599  0000B4  C03E  FFE9         	movff	??_InterruptHandlerLow+5,fsr0l
  5600  0000B8  C03D  FFFB         	movff	??_InterruptHandlerLow+4,pclatu
  5601  0000BC  C03C  FFFA         	movff	??_InterruptHandlerLow+3,pclath
  5602  0000C0  C03B  FFE0         	movff	??_InterruptHandlerLow+2,bsr
  5603  0000C4  C03A  FFE8         	movff	??_InterruptHandlerLow+1,wreg
  5604  0000C8  C039  FFD8         	movff	??_InterruptHandlerLow,status
  5605  0000CC  0010               	retfie	
  5606  0000CE                     __end_of_InterruptHandlerLow:
  5607                           	opt stack 0
  5608                           pclatu	equ	0xFFB
  5609                           pclath	equ	0xFFA
  5610                           tblptru	equ	0xFF8
  5611                           tblptrh	equ	0xFF7
  5612                           tblptrl	equ	0xFF6
  5613                           tablat	equ	0xFF5
  5614                           prodh	equ	0xFF4
  5615                           prodl	equ	0xFF3
  5616                           intcon	equ	0xFF2
  5617                           postinc0	equ	0xFEE
  5618                           fsr0h	equ	0xFEA
  5619                           fsr0l	equ	0xFE9
  5620                           wreg	equ	0xFE8
  5621                           indf1	equ	0xFE7
  5622                           fsr1h	equ	0xFE2
  5623                           fsr1l	equ	0xFE1
  5624                           bsr	equ	0xFE0
  5625                           indf2	equ	0xFDF
  5626                           postinc2	equ	0xFDE
  5627                           postdec2	equ	0xFDD
  5628                           fsr2h	equ	0xFDA
  5629                           fsr2l	equ	0xFD9
  5630                           status	equ	0xFD8
  5631                           
  5632 ;; *************** function i1_blip1 *****************
  5633 ;; Defined at:
  5634 ;;		line 18 in file "../src/debug.c"
  5635 ;; Parameters:    Size  Location     Type
  5636 ;;		None
  5637 ;; Auto vars:     Size  Location     Type
  5638 ;;		None
  5639 ;; Return value:  Size  Location     Type
  5640 ;;		None               void
  5641 ;; Registers used:
  5642 ;;		None
  5643 ;; Tracked objects:
  5644 ;;		On entry : 0/0
  5645 ;;		On exit  : 0/0
  5646 ;;		Unchanged: 0/0
  5647 ;; Data sizes:     COMRAM   BANK0   BANK1   BANK2   BANK3   BANK4   BANK5   BANK6   BANK7   BANK8   BANK9  BANK10  BANK1
      +1  BANK12  BANK13  BANK14
  5648 ;;      Params:         0       0       0       0       0       0       0       0       0       0       0       0       
      +0       0       0       0
  5649 ;;      Locals:         0       0       0       0       0       0       0       0       0       0       0       0       
      +0       0       0       0
  5650 ;;      Temps:          0       0       0       0       0       0       0       0       0       0       0       0       
      +0       0       0       0
  5651 ;;      Totals:         0       0       0       0       0       0       0       0       0       0       0       0       
      +0       0       0       0
  5652 ;;Total ram usage:        0 bytes
  5653 ;; Hardware stack levels used:    1
  5654 ;; Hardware stack levels required when called:    5
  5655 ;; This function calls:
  5656 ;;		Nothing
  5657 ;; This function is called by:
  5658 ;;		_InterruptHandlerLow
  5659 ;; This function uses a non-reentrant model
  5660 ;;
  5661                           
  5662                           	psect	text36
  5663  001C2E                     __ptext36:
  5664                           	opt stack 0
  5665  001C2E                     i1_blip1:
  5666                           	opt stack 19
  5667                           
  5668                           ;debug.c: 20: LATDbits.LD4 = 0;
  5669                           
  5670                           ;incstack = 0
  5671  001C2E  988C               	bcf	3980,4,c	;volatile
  5672                           
  5673                           ;debug.c: 21: LATDbits.LD4 = 1;
  5674  001C30  888C               	bsf	3980,4,c	;volatile
  5675                           
  5676                           ;debug.c: 22: LATDbits.LD4 = 0;
  5677  001C32  988C               	bcf	3980,4,c	;volatile
  5678  001C34  0012               	return	
  5679  001C36                     __end_ofi1_blip1:
  5680                           	opt stack 0
  5681                           pclatu	equ	0xFFB
  5682                           pclath	equ	0xFFA
  5683                           tblptru	equ	0xFF8
  5684                           tblptrh	equ	0xFF7
  5685                           tblptrl	equ	0xFF6
  5686                           tablat	equ	0xFF5
  5687                           prodh	equ	0xFF4
  5688                           prodl	equ	0xFF3
  5689                           intcon	equ	0xFF2
  5690                           postinc0	equ	0xFEE
  5691                           fsr0h	equ	0xFEA
  5692                           fsr0l	equ	0xFE9
  5693                           wreg	equ	0xFE8
  5694                           indf1	equ	0xFE7
  5695                           fsr1h	equ	0xFE2
  5696                           fsr1l	equ	0xFE1
  5697                           bsr	equ	0xFE0
  5698                           indf2	equ	0xFDF
  5699                           postinc2	equ	0xFDE
  5700                           postdec2	equ	0xFDD
  5701                           fsr2h	equ	0xFDA
  5702                           fsr2l	equ	0xFD9
  5703                           status	equ	0xFD8
  5704                           
  5705 ;; *************** function _uart_transmit_interrupt_handler *****************
  5706 ;; Defined at:
  5707 ;;		line 205 in file "../src/my_uart.c"
  5708 ;; Parameters:    Size  Location     Type
  5709 ;;		None
  5710 ;; Auto vars:     Size  Location     Type
  5711 ;;  message_stat    1   44[COMRAM] char 
  5712 ;;  data           14   29[COMRAM] unsigned char [14]
  5713 ;;  msgtype         1   43[COMRAM] unsigned char 
  5714 ;; Return value:  Size  Location     Type
  5715 ;;		None               void
  5716 ;; Registers used:
  5717 ;;		wreg, fsr1l, fsr1h, fsr2l, fsr2h, status,2, status,0, prodl, prodh, cstack
  5718 ;; Tracked objects:
  5719 ;;		On entry : 0/0
  5720 ;;		On exit  : 0/0
  5721 ;;		Unchanged: 0/0
  5722 ;; Data sizes:     COMRAM   BANK0   BANK1   BANK2   BANK3   BANK4   BANK5   BANK6   BANK7   BANK8   BANK9  BANK10  BANK1
      +1  BANK12  BANK13  BANK14
  5723 ;;      Params:         0       0       0       0       0       0       0       0       0       0       0       0       
      +0       0       0       0
  5724 ;;      Locals:        16       0       0       0       0       0       0       0       0       0       0       0       
      +0       0       0       0
  5725 ;;      Temps:          0       0       0       0       0       0       0       0       0       0       0       0       
      +0       0       0       0
  5726 ;;      Totals:        16       0       0       0       0       0       0       0       0       0       0       0       
      +0       0       0       0
  5727 ;;Total ram usage:       16 bytes
  5728 ;; Hardware stack levels used:    1
  5729 ;; Hardware stack levels required when called:    8
  5730 ;; This function calls:
  5731 ;;		_FromMainLow_recvmsg
  5732 ;;		_uart_frame_message
  5733 ;; This function is called by:
  5734 ;;		_InterruptHandlerLow
  5735 ;; This function uses a non-reentrant model
  5736 ;;
  5737                           
  5738                           	psect	text37
  5739  00122C                     __ptext37:
  5740                           	opt stack 0
  5741  00122C                     _uart_transmit_interrupt_handler:
  5742                           	opt stack 16
  5743                           
  5744                           ;my_uart.c: 208: static unsigned char done = 1;
  5745                           ;my_uart.c: 209: static unsigned char index = 0;
  5746                           ;my_uart.c: 211: unsigned char data[14];
  5747                           ;my_uart.c: 212: static unsigned char message[(14 + 2 + 2)];
  5748                           ;my_uart.c: 214: unsigned char msgtype = 31;
  5749                           
  5750                           ;incstack = 0
  5751  00122C  0E1F               	movlw	31
  5752  00122E  6E2C               	movwf	uart_transmit_interrupt_handler@msgtype,c
  5753                           
  5754                           ;my_uart.c: 216: if( done )
  5755  001230  5051               	movf	uart_transmit_interrupt_handler@done,w,c
  5756  001232  B4D8               	btfsc	status,2,c
  5757  001234  D03A               	goto	i1l3965
  5758                           
  5759                           ;my_uart.c: 217: {
  5760                           ;my_uart.c: 218: signed char message_status = FromMainLow_recvmsg(14,&msgtype, (void*)da
      +                          ta );
  5761  001236  0E00               	movlw	high uart_transmit_interrupt_handler@msgtype
  5762  001238  6E1A               	movwf	FromMainLow_recvmsg@msgtype+1,c
  5763  00123A  0E2C               	movlw	low uart_transmit_interrupt_handler@msgtype
  5764  00123C  6E19               	movwf	FromMainLow_recvmsg@msgtype,c
  5765  00123E  0E00               	movlw	high uart_transmit_interrupt_handler@data
  5766  001240  6E1C               	movwf	FromMainLow_recvmsg@data+1,c
  5767  001242  0E1E               	movlw	low uart_transmit_interrupt_handler@data
  5768  001244  6E1B               	movwf	FromMainLow_recvmsg@data,c
  5769  001246  0E0E               	movlw	14
  5770  001248  EC55  F00D         	call	_FromMainLow_recvmsg
  5771  00124C  6E2D               	movwf	uart_transmit_interrupt_handler@message_status,c
  5772                           
  5773                           ;my_uart.c: 220: if( message_status == -4)
  5774  00124E  502D               	movf	uart_transmit_interrupt_handler@message_status,w,c
  5775  001250  0AFC               	xorlw	252
  5776  001252  A4D8               	btfss	status,2,c
  5777  001254  D002               	goto	i1l3937
  5778                           
  5779                           ;my_uart.c: 221: {
  5780                           ;my_uart.c: 223: PIE1bits.TX1IE = 0;
  5781  001256  989D               	bcf	3997,4,c	;volatile
  5782                           
  5783                           ;my_uart.c: 224: }
  5784  001258  0012               	return	
  5785  00125A                     i1l3937:
  5786                           
  5787                           ;my_uart.c: 225: else if( message_status > 0 )
  5788  00125A  502D               	movf	uart_transmit_interrupt_handler@message_status,w,c
  5789  00125C  0A80               	xorlw	128
  5790  00125E  0F7F               	addlw	-129
  5791  001260  A0D8               	btfss	status,0,c
  5792  001262  0012               	return	
  5793                           
  5794                           ;my_uart.c: 226: {
  5795                           ;my_uart.c: 227: uart_frame_message( data , message );
  5796  001264  0E00               	movlw	high uart_transmit_interrupt_handler@data
  5797  001266  6E02               	movwf	uart_frame_message@inner+1,c
  5798  001268  0E1E               	movlw	low uart_transmit_interrupt_handler@data
  5799  00126A  6E01               	movwf	uart_frame_message@inner,c
  5800  00126C  0100               	movlb	0	; () banked
  5801  00126E  0E00               	movlw	high uart_transmit_interrupt_handler@message
  5802  001270  6E04               	movwf	uart_frame_message@outer+1,c
  5803  001272  0100               	movlb	0	; () banked
  5804  001274  0EBA               	movlw	low uart_transmit_interrupt_handler@message
  5805  001276  6E03               	movwf	uart_frame_message@outer,c
  5806  001278  ECE7  F007         	call	_uart_frame_message	;wreg free
  5807                           
  5808                           ;my_uart.c: 228: index = 0;
  5809  00127C  0E00               	movlw	0
  5810  00127E  6E50               	movwf	uart_transmit_interrupt_handler@index,c
  5811                           
  5812                           ;my_uart.c: 229: done = 0;
  5813  001280  0E00               	movlw	0
  5814  001282  6E51               	movwf	uart_transmit_interrupt_handler@done,c
  5815                           
  5816                           ;my_uart.c: 231: TXREG1 = message[index];
  5817  001284  5050               	movf	uart_transmit_interrupt_handler@index,w,c
  5818  001286  0D01               	mullw	1
  5819  001288  0100               	movlb	0	; () banked
  5820  00128A  0EBA               	movlw	low uart_transmit_interrupt_handler@message
  5821  00128C  24F3               	addwf	prodl,w,c
  5822  00128E  6ED9               	movwf	fsr2l,c
  5823  001290  0100               	movlb	0	; () banked
  5824  001292  0E00               	movlw	high uart_transmit_interrupt_handler@message
  5825  001294  20F4               	addwfc	prodh,w,c
  5826  001296  6EDA               	movwf	fsr2h,c
  5827  001298  50DF               	movf	indf2,w,c
  5828  00129A  6EAE               	movwf	4014,c	;volatile
  5829                           
  5830                           ; BSR set to: 0
  5831                           ;my_uart.c: 232: index++;
  5832  00129C  2A50               	incf	uart_transmit_interrupt_handler@index,f,c
  5833                           
  5834                           ; BSR set to: 0
  5835                           ;my_uart.c: 233: if( index >= (14 + 2 + 2) )
  5836  00129E  0E11               	movlw	17
  5837  0012A0  6450               	cpfsgt	uart_transmit_interrupt_handler@index,c
  5838  0012A2  0012               	return	
  5839                           
  5840                           ; BSR set to: 0
  5841                           ;my_uart.c: 234: {
  5842                           ;my_uart.c: 235: done = 1;
  5843  0012A4  0E01               	movlw	1
  5844  0012A6  6E51               	movwf	uart_transmit_interrupt_handler@done,c
  5845  0012A8  0012               	return	
  5846  0012AA                     i1l3965:
  5847                           
  5848                           ;my_uart.c: 252: else
  5849                           ;my_uart.c: 253: {
  5850                           ;my_uart.c: 255: TXREG1 = message[index];
  5851  0012AA  5050               	movf	uart_transmit_interrupt_handler@index,w,c
  5852  0012AC  0D01               	mullw	1
  5853  0012AE  0100               	movlb	0	; () banked
  5854  0012B0  0EBA               	movlw	low uart_transmit_interrupt_handler@message
  5855  0012B2  24F3               	addwf	prodl,w,c
  5856  0012B4  6ED9               	movwf	fsr2l,c
  5857  0012B6  0100               	movlb	0	; () banked
  5858  0012B8  0E00               	movlw	high uart_transmit_interrupt_handler@message
  5859  0012BA  20F4               	addwfc	prodh,w,c
  5860  0012BC  6EDA               	movwf	fsr2h,c
  5861  0012BE  50DF               	movf	indf2,w,c
  5862  0012C0  6EAE               	movwf	4014,c	;volatile
  5863                           
  5864                           ; BSR set to: 0
  5865                           ;my_uart.c: 256: index++;
  5866  0012C2  2A50               	incf	uart_transmit_interrupt_handler@index,f,c
  5867                           
  5868                           ; BSR set to: 0
  5869                           ;my_uart.c: 257: if( index >= (14 + 2 + 2) )
  5870  0012C4  0E11               	movlw	17
  5871  0012C6  6450               	cpfsgt	uart_transmit_interrupt_handler@index,c
  5872  0012C8  0012               	return	
  5873                           
  5874                           ; BSR set to: 0
  5875                           ;my_uart.c: 258: {
  5876                           ;my_uart.c: 259: done = 1;
  5877  0012CA  0E01               	movlw	1
  5878  0012CC  6E51               	movwf	uart_transmit_interrupt_handler@done,c
  5879  0012CE  0012               	return	
  5880  0012D0                     __end_of_uart_transmit_interrupt_handler:
  5881                           	opt stack 0
  5882                           pclatu	equ	0xFFB
  5883                           pclath	equ	0xFFA
  5884                           tblptru	equ	0xFF8
  5885                           tblptrh	equ	0xFF7
  5886                           tblptrl	equ	0xFF6
  5887                           tablat	equ	0xFF5
  5888                           prodh	equ	0xFF4
  5889                           prodl	equ	0xFF3
  5890                           intcon	equ	0xFF2
  5891                           postinc0	equ	0xFEE
  5892                           fsr0h	equ	0xFEA
  5893                           fsr0l	equ	0xFE9
  5894                           wreg	equ	0xFE8
  5895                           indf1	equ	0xFE7
  5896                           fsr1h	equ	0xFE2
  5897                           fsr1l	equ	0xFE1
  5898                           bsr	equ	0xFE0
  5899                           indf2	equ	0xFDF
  5900                           postinc2	equ	0xFDE
  5901                           postdec2	equ	0xFDD
  5902                           fsr2h	equ	0xFDA
  5903                           fsr2l	equ	0xFD9
  5904                           status	equ	0xFD8
  5905                           
  5906 ;; *************** function _uart_frame_message *****************
  5907 ;; Defined at:
  5908 ;;		line 373 in file "../src/my_uart.c"
  5909 ;; Parameters:    Size  Location     Type
  5910 ;;  inner           2    0[COMRAM] PTR unsigned char 
  5911 ;;		 -> uart_transmit_interrupt_handler@data(14), 
  5912 ;;  outer           2    2[COMRAM] PTR unsigned char 
  5913 ;;		 -> uart_transmit_interrupt_handler@message(18), 
  5914 ;; Auto vars:     Size  Location     Type
  5915 ;;  i               1    7[COMRAM] unsigned char 
  5916 ;;  checksum        1    6[COMRAM] unsigned char 
  5917 ;; Return value:  Size  Location     Type
  5918 ;;		None               void
  5919 ;; Registers used:
  5920 ;;		wreg, fsr1l, fsr1h, fsr2l, fsr2h, status,2, status,0, prodl, prodh
  5921 ;; Tracked objects:
  5922 ;;		On entry : 0/0
  5923 ;;		On exit  : 0/0
  5924 ;;		Unchanged: 0/0
  5925 ;; Data sizes:     COMRAM   BANK0   BANK1   BANK2   BANK3   BANK4   BANK5   BANK6   BANK7   BANK8   BANK9  BANK10  BANK1
      +1  BANK12  BANK13  BANK14
  5926 ;;      Params:         4       0       0       0       0       0       0       0       0       0       0       0       
      +0       0       0       0
  5927 ;;      Locals:         2       0       0       0       0       0       0       0       0       0       0       0       
      +0       0       0       0
  5928 ;;      Temps:          2       0       0       0       0       0       0       0       0       0       0       0       
      +0       0       0       0
  5929 ;;      Totals:         8       0       0       0       0       0       0       0       0       0       0       0       
      +0       0       0       0
  5930 ;;Total ram usage:        8 bytes
  5931 ;; Hardware stack levels used:    1
  5932 ;; Hardware stack levels required when called:    5
  5933 ;; This function calls:
  5934 ;;		Nothing
  5935 ;; This function is called by:
  5936 ;;		_uart_transmit_interrupt_handler
  5937 ;; This function uses a non-reentrant model
  5938 ;;
  5939                           
  5940                           	psect	text38
  5941  000FCE                     __ptext38:
  5942                           	opt stack 0
  5943  000FCE                     _uart_frame_message:
  5944                           	opt stack 18
  5945                           
  5946                           ;my_uart.c: 375: static unsigned char sent_counter = 0;
  5947                           ;my_uart.c: 377: outer[0] = 0xff;
  5948                           
  5949                           ;incstack = 0
  5950  000FCE  C003  FFD9         	movff	uart_frame_message@outer,fsr2l
  5951  000FD2  C004  FFDA         	movff	uart_frame_message@outer+1,fsr2h
  5952  000FD6  0EFF               	movlw	255
  5953  000FD8  6EDF               	movwf	indf2,c
  5954                           
  5955                           ;my_uart.c: 378: outer[1] = sent_counter++;
  5956  000FDA  EE20 F001          	lfsr	2,1
  5957  000FDE  5003               	movf	uart_frame_message@outer,w,c
  5958  000FE0  26D9               	addwf	fsr2l,f,c
  5959  000FE2  5004               	movf	uart_frame_message@outer+1,w,c
  5960  000FE4  22DA               	addwfc	fsr2h,f,c
  5961  000FE6  C04A  FFDF         	movff	uart_frame_message@sent_counter,indf2
  5962  000FEA  2A4A               	incf	uart_frame_message@sent_counter,f,c
  5963                           
  5964                           ;my_uart.c: 379: outer[(14 + 2 + 2)-1] = 0xfe;
  5965  000FEC  EE20 F011          	lfsr	2,17
  5966  000FF0  5003               	movf	uart_frame_message@outer,w,c
  5967  000FF2  26D9               	addwf	fsr2l,f,c
  5968  000FF4  5004               	movf	uart_frame_message@outer+1,w,c
  5969  000FF6  22DA               	addwfc	fsr2h,f,c
  5970  000FF8  0EFE               	movlw	254
  5971  000FFA  6EDF               	movwf	indf2,c
  5972                           
  5973                           ;my_uart.c: 381: unsigned char checksum = 0;
  5974  000FFC  0E00               	movlw	0
  5975  000FFE  6E07               	movwf	uart_frame_message@checksum,c
  5976                           
  5977                           ;my_uart.c: 382: unsigned char i;
  5978                           ;my_uart.c: 383: for(i=0;i<14;i++)
  5979  001000  0E00               	movlw	0
  5980  001002  6E08               	movwf	uart_frame_message@i,c
  5981  001004  D049               	goto	L6
  5982  001006                     i1l2635:
  5983                           
  5984                           ;my_uart.c: 384: {
  5985                           ;my_uart.c: 385: if( inner[i] == 0xff || inner[i] == 0xfe )
  5986  001006  5008               	movf	uart_frame_message@i,w,c
  5987  001008  0D01               	mullw	1
  5988  00100A  50F3               	movf	prodl,w,c
  5989  00100C  2401               	addwf	uart_frame_message@inner,w,c
  5990  00100E  6ED9               	movwf	fsr2l,c
  5991  001010  50F4               	movf	prodh,w,c
  5992  001012  2002               	addwfc	uart_frame_message@inner+1,w,c
  5993  001014  6EDA               	movwf	fsr2h,c
  5994  001016  50DF               	movf	indf2,w,c
  5995  001018  0AFF               	xorlw	255
  5996  00101A  B4D8               	btfsc	status,2,c
  5997  00101C  D00B               	goto	i1l2639
  5998  00101E  5008               	movf	uart_frame_message@i,w,c
  5999  001020  0D01               	mullw	1
  6000  001022  50F3               	movf	prodl,w,c
  6001  001024  2401               	addwf	uart_frame_message@inner,w,c
  6002  001026  6ED9               	movwf	fsr2l,c
  6003  001028  50F4               	movf	prodh,w,c
  6004  00102A  2002               	addwfc	uart_frame_message@inner+1,w,c
  6005  00102C  6EDA               	movwf	fsr2h,c
  6006  00102E  0EFE               	movlw	254
  6007  001030  62DF               	cpfseq	indf2,c
  6008  001032  D010               	goto	i1l2641
  6009  001034                     i1l2639:
  6010                           
  6011                           ;my_uart.c: 386: {
  6012                           ;my_uart.c: 387: outer[i+2] = 0xfd;
  6013  001034  5008               	movf	uart_frame_message@i,w,c
  6014  001036  6E05               	movwf	??_uart_frame_message& (0+255),c
  6015  001038  6A06               	clrf	(??_uart_frame_message+1)& (0+255),c
  6016  00103A  0E02               	movlw	2
  6017  00103C  2605               	addwf	??_uart_frame_message,f,c
  6018  00103E  0E00               	movlw	0
  6019  001040  2206               	addwfc	??_uart_frame_message+1,f,c
  6020  001042  5005               	movf	??_uart_frame_message,w,c
  6021  001044  2403               	addwf	uart_frame_message@outer,w,c
  6022  001046  6ED9               	movwf	fsr2l,c
  6023  001048  5006               	movf	??_uart_frame_message+1,w,c
  6024  00104A  2004               	addwfc	uart_frame_message@outer+1,w,c
  6025  00104C  6EDA               	movwf	fsr2h,c
  6026  00104E  0EFD               	movlw	253
  6027  001050  6EDF               	movwf	indf2,c
  6028                           
  6029                           ;my_uart.c: 388: }
  6030  001052  D017               	goto	i1l2643
  6031  001054                     i1l2641:
  6032                           
  6033                           ;my_uart.c: 389: else
  6034                           ;my_uart.c: 390: {
  6035                           ;my_uart.c: 391: outer[i+2] = inner[i];
  6036  001054  5008               	movf	uart_frame_message@i,w,c
  6037  001056  0D01               	mullw	1
  6038  001058  50F3               	movf	prodl,w,c
  6039  00105A  2401               	addwf	uart_frame_message@inner,w,c
  6040  00105C  6ED9               	movwf	fsr2l,c
  6041  00105E  50F4               	movf	prodh,w,c
  6042  001060  2002               	addwfc	uart_frame_message@inner+1,w,c
  6043  001062  6EDA               	movwf	fsr2h,c
  6044  001064  5008               	movf	uart_frame_message@i,w,c
  6045  001066  6E05               	movwf	??_uart_frame_message& (0+255),c
  6046  001068  6A06               	clrf	(??_uart_frame_message+1)& (0+255),c
  6047  00106A  0E02               	movlw	2
  6048  00106C  2605               	addwf	??_uart_frame_message,f,c
  6049  00106E  0E00               	movlw	0
  6050  001070  2206               	addwfc	??_uart_frame_message+1,f,c
  6051  001072  5005               	movf	??_uart_frame_message,w,c
  6052  001074  2403               	addwf	uart_frame_message@outer,w,c
  6053  001076  6EE1               	movwf	fsr1l,c
  6054  001078  5006               	movf	??_uart_frame_message+1,w,c
  6055  00107A  2004               	addwfc	uart_frame_message@outer+1,w,c
  6056  00107C  6EE2               	movwf	fsr1h,c
  6057  00107E  CFDF FFE7          	movff	indf2,indf1
  6058  001082                     i1l2643:
  6059                           
  6060                           ;my_uart.c: 392: }
  6061                           ;my_uart.c: 393: checksum ^= inner[i];
  6062  001082  5008               	movf	uart_frame_message@i,w,c
  6063  001084  0D01               	mullw	1
  6064  001086  50F3               	movf	prodl,w,c
  6065  001088  2401               	addwf	uart_frame_message@inner,w,c
  6066  00108A  6ED9               	movwf	fsr2l,c
  6067  00108C  50F4               	movf	prodh,w,c
  6068  00108E  2002               	addwfc	uart_frame_message@inner+1,w,c
  6069  001090  6EDA               	movwf	fsr2h,c
  6070  001092  50DF               	movf	indf2,w,c
  6071  001094  1A07               	xorwf	uart_frame_message@checksum,f,c
  6072  001096  2A08               	incf	uart_frame_message@i,f,c
  6073  001098                     L6:
  6074  001098  0E0D               	movlw	13
  6075  00109A  6408               	cpfsgt	uart_frame_message@i,c
  6076  00109C  D7B4               	goto	i1l2635
  6077                           
  6078                           ;my_uart.c: 394: }
  6079                           ;my_uart.c: 395: outer[(14 + 2 + 2)-2] = checksum;
  6080  00109E  EE20 F010          	lfsr	2,16
  6081  0010A2  5003               	movf	uart_frame_message@outer,w,c
  6082  0010A4  26D9               	addwf	fsr2l,f,c
  6083  0010A6  5004               	movf	uart_frame_message@outer+1,w,c
  6084  0010A8  22DA               	addwfc	fsr2h,f,c
  6085  0010AA  C007  FFDF         	movff	uart_frame_message@checksum,indf2
  6086  0010AE  0012               	return	
  6087  0010B0                     __end_of_uart_frame_message:
  6088                           	opt stack 0
  6089                           pclatu	equ	0xFFB
  6090                           pclath	equ	0xFFA
  6091                           tblptru	equ	0xFF8
  6092                           tblptrh	equ	0xFF7
  6093                           tblptrl	equ	0xFF6
  6094                           tablat	equ	0xFF5
  6095                           prodh	equ	0xFF4
  6096                           prodl	equ	0xFF3
  6097                           intcon	equ	0xFF2
  6098                           postinc0	equ	0xFEE
  6099                           fsr0h	equ	0xFEA
  6100                           fsr0l	equ	0xFE9
  6101                           wreg	equ	0xFE8
  6102                           indf1	equ	0xFE7
  6103                           fsr1h	equ	0xFE2
  6104                           fsr1l	equ	0xFE1
  6105                           bsr	equ	0xFE0
  6106                           indf2	equ	0xFDF
  6107                           postinc2	equ	0xFDE
  6108                           postdec2	equ	0xFDD
  6109                           fsr2h	equ	0xFDA
  6110                           fsr2l	equ	0xFD9
  6111                           status	equ	0xFD8
  6112                           
  6113 ;; *************** function _FromMainLow_recvmsg *****************
  6114 ;; Defined at:
  6115 ;;		line 160 in file "../src/messages.c"
  6116 ;; Parameters:    Size  Location     Type
  6117 ;;  maxlength       1    wreg     unsigned char 
  6118 ;;  msgtype         2   24[COMRAM] PTR unsigned char 
  6119 ;;		 -> uart_transmit_interrupt_handler@msgtype(1), 
  6120 ;;  data            2   26[COMRAM] PTR void 
  6121 ;;		 -> uart_transmit_interrupt_handler@data(14), 
  6122 ;; Auto vars:     Size  Location     Type
  6123 ;;  maxlength       1   28[COMRAM] unsigned char 
  6124 ;; Return value:  Size  Location     Type
  6125 ;;                  1    wreg      char 
  6126 ;; Registers used:
  6127 ;;		wreg, fsr1l, fsr1h, fsr2l, fsr2h, status,2, status,0, prodl, prodh, cstack
  6128 ;; Tracked objects:
  6129 ;;		On entry : 0/0
  6130 ;;		On exit  : 0/0
  6131 ;;		Unchanged: 0/0
  6132 ;; Data sizes:     COMRAM   BANK0   BANK1   BANK2   BANK3   BANK4   BANK5   BANK6   BANK7   BANK8   BANK9  BANK10  BANK1
      +1  BANK12  BANK13  BANK14
  6133 ;;      Params:         4       0       0       0       0       0       0       0       0       0       0       0       
      +0       0       0       0
  6134 ;;      Locals:         1       0       0       0       0       0       0       0       0       0       0       0       
      +0       0       0       0
  6135 ;;      Temps:          0       0       0       0       0       0       0       0       0       0       0       0       
      +0       0       0       0
  6136 ;;      Totals:         5       0       0       0       0       0       0       0       0       0       0       0       
      +0       0       0       0
  6137 ;;Total ram usage:        5 bytes
  6138 ;; Hardware stack levels used:    1
  6139 ;; Hardware stack levels required when called:    7
  6140 ;; This function calls:
  6141 ;;		i1_recv_msg
  6142 ;; This function is called by:
  6143 ;;		_uart_transmit_interrupt_handler
  6144 ;; This function uses a non-reentrant model
  6145 ;;
  6146                           
  6147                           	psect	text39
  6148  001AAA                     __ptext39:
  6149                           	opt stack 0
  6150  001AAA                     _FromMainLow_recvmsg:
  6151                           	opt stack 16
  6152                           
  6153                           ;incstack = 0
  6154                           ;FromMainLow_recvmsg@maxlength stored from wreg
  6155  001AAA  6E1D               	movwf	FromMainLow_recvmsg@maxlength,c
  6156                           
  6157                           ;messages.c: 166: return (recv_msg(&FromMainLow_MQ, maxlength, msgtype, data));
  6158  001AAC  0103               	movlb	3	; () banked
  6159  001AAE  0E03               	movlw	high _FromMainLow_MQ
  6160  001AB0  6E0C               	movwf	i1recv_msg@qptr+1,c
  6161  001AB2  0103               	movlb	3	; () banked
  6162  001AB4  0E00               	movlw	low _FromMainLow_MQ
  6163  001AB6  6E0B               	movwf	i1recv_msg@qptr,c
  6164  001AB8  C01D  F00D         	movff	FromMainLow_recvmsg@maxlength,i1recv_msg@maxlength
  6165  001ABC  C01A  F00F         	movff	FromMainLow_recvmsg@msgtype+1,i1recv_msg@msgtype+1
  6166  001AC0  C019  F00E         	movff	FromMainLow_recvmsg@msgtype,i1recv_msg@msgtype
  6167  001AC4  C01C  F011         	movff	FromMainLow_recvmsg@data+1,i1recv_msg@data+1
  6168  001AC8  C01B  F010         	movff	FromMainLow_recvmsg@data,i1recv_msg@data
  6169  001ACC  EC58  F008         	call	i1_recv_msg	;wreg free
  6170  001AD0  0012               	return	
  6171  001AD2                     __end_of_FromMainLow_recvmsg:
  6172                           	opt stack 0
  6173                           pclatu	equ	0xFFB
  6174                           pclath	equ	0xFFA
  6175                           tblptru	equ	0xFF8
  6176                           tblptrh	equ	0xFF7
  6177                           tblptrl	equ	0xFF6
  6178                           tablat	equ	0xFF5
  6179                           prodh	equ	0xFF4
  6180                           prodl	equ	0xFF3
  6181                           intcon	equ	0xFF2
  6182                           postinc0	equ	0xFEE
  6183                           fsr0h	equ	0xFEA
  6184                           fsr0l	equ	0xFE9
  6185                           wreg	equ	0xFE8
  6186                           indf1	equ	0xFE7
  6187                           fsr1h	equ	0xFE2
  6188                           fsr1l	equ	0xFE1
  6189                           bsr	equ	0xFE0
  6190                           indf2	equ	0xFDF
  6191                           postinc2	equ	0xFDE
  6192                           postdec2	equ	0xFDD
  6193                           fsr2h	equ	0xFDA
  6194                           fsr2l	equ	0xFD9
  6195                           status	equ	0xFD8
  6196                           
  6197 ;; *************** function i1_recv_msg *****************
  6198 ;; Defined at:
  6199 ;;		line 64 in file "../src/messages.c"
  6200 ;; Parameters:    Size  Location     Type
  6201 ;;  qptr            2   10[COMRAM] PTR struct __msg_queue
  6202 ;;		 -> FromMainHigh_MQ(138), FromMainLow_MQ(138), ToMainHigh_MQ(138), ToMainLow_MQ(138), 
  6203 ;;  maxlength       1   12[COMRAM] unsigned char 
  6204 ;;  msgtype         2   13[COMRAM] PTR unsigned char 
  6205 ;;		 -> timer0_int_handler@msgtype(2), uart_transmit_interrupt_handler@msgtype(1), i2c_int_handler@msg_to_send(1), main@
      +msgtype(1), 
  6206 ;;  data            2   15[COMRAM] PTR void 
  6207 ;;		 -> NULL(0), timer0_int_handler@val(2), uart_transmit_interrupt_handler@data(14), main@msgbuffer(15), 
  6208 ;;		 -> main@ic(38), 
  6209 ;; Auto vars:     Size  Location     Type
  6210 ;;  recv_msg        2   22[COMRAM] PTR struct __msg
  6211 ;;		 -> FromMainLow_MQ.queue(136), FromMainHigh_MQ.queue(136), ToMainHigh_MQ.queue(136), ToMainLow_MQ.queue(136), 
  6212 ;;		 -> FromMainHigh_MQ(138), FromMainLow_MQ(138), ToMainHigh_MQ(138), ToMainLow_MQ(138), 
  6213 ;;  recv_msg        2   20[COMRAM] unsigned int 
  6214 ;;  recv_msg        1   19[COMRAM] unsigned char 
  6215 ;; Return value:  Size  Location     Type
  6216 ;;                  1    wreg      char 
  6217 ;; Registers used:
  6218 ;;		wreg, fsr1l, fsr1h, fsr2l, fsr2h, status,2, status,0, prodl, prodh, cstack
  6219 ;; Tracked objects:
  6220 ;;		On entry : 0/0
  6221 ;;		On exit  : 0/0
  6222 ;;		Unchanged: 0/0
  6223 ;; Data sizes:     COMRAM   BANK0   BANK1   BANK2   BANK3   BANK4   BANK5   BANK6   BANK7   BANK8   BANK9  BANK10  BANK1
      +1  BANK12  BANK13  BANK14
  6224 ;;      Params:         7       0       0       0       0       0       0       0       0       0       0       0       
      +0       0       0       0
  6225 ;;      Locals:         5       0       0       0       0       0       0       0       0       0       0       0       
      +0       0       0       0
  6226 ;;      Temps:          2       0       0       0       0       0       0       0       0       0       0       0       
      +0       0       0       0
  6227 ;;      Totals:        14       0       0       0       0       0       0       0       0       0       0       0       
      +0       0       0       0
  6228 ;;Total ram usage:       14 bytes
  6229 ;; Hardware stack levels used:    1
  6230 ;; Hardware stack levels required when called:    6
  6231 ;; This function calls:
  6232 ;;		i1_memcpy
  6233 ;; This function is called by:
  6234 ;;		_FromMainLow_recvmsg
  6235 ;; This function uses a non-reentrant model
  6236 ;;
  6237                           
  6238                           	psect	text40
  6239  0010B0                     __ptext40:
  6240                           	opt stack 0
  6241  0010B0                     i1_recv_msg:
  6242                           	opt stack 16
  6243                           
  6244                           ;messages.c: 65: unsigned char slot;
  6245                           ;messages.c: 69: msg *qmsg;
  6246                           ;messages.c: 70: size_t tlength;
  6247                           ;messages.c: 73: slot = qptr->cur_read_ind;
  6248                           
  6249                           ;incstack = 0
  6250  0010B0  EE20 F089          	lfsr	2,137
  6251  0010B4  500B               	movf	i1recv_msg@qptr,w,c
  6252  0010B6  26D9               	addwf	fsr2l,f,c
  6253  0010B8  500C               	movf	i1recv_msg@qptr+1,w,c
  6254  0010BA  22DA               	addwfc	fsr2h,f,c
  6255  0010BC  50DF               	movf	indf2,w,c
  6256  0010BE  6E14               	movwf	i1recv_msg@slot,c
  6257                           
  6258                           ;messages.c: 74: qmsg = &(qptr->queue[slot]);
  6259  0010C0  5014               	movf	i1recv_msg@slot,w,c
  6260  0010C2  0D11               	mullw	17
  6261  0010C4  50F3               	movf	prodl,w,c
  6262  0010C6  240B               	addwf	i1recv_msg@qptr,w,c
  6263  0010C8  6E17               	movwf	i1recv_msg@qmsg,c
  6264  0010CA  50F4               	movf	prodh,w,c
  6265  0010CC  200C               	addwfc	i1recv_msg@qptr+1,w,c
  6266  0010CE  6E18               	movwf	i1recv_msg@qmsg+1,c
  6267                           
  6268                           ;messages.c: 75: if (qmsg->full == 1) {
  6269  0010D0  0E01               	movlw	1
  6270  0010D2  C017  FFD9         	movff	i1recv_msg@qmsg,fsr2l
  6271  0010D6  C018  FFDA         	movff	i1recv_msg@qmsg+1,fsr2h
  6272  0010DA  62DF               	cpfseq	indf2,c
  6273  0010DC  D050               	goto	i1l3555
  6274                           
  6275                           ;messages.c: 77: if (qmsg->length > maxlength) {
  6276  0010DE  EE20 F001          	lfsr	2,1
  6277  0010E2  5017               	movf	i1recv_msg@qmsg,w,c
  6278  0010E4  26D9               	addwf	fsr2l,f,c
  6279  0010E6  5018               	movf	i1recv_msg@qmsg+1,w,c
  6280  0010E8  22DA               	addwfc	fsr2h,f,c
  6281  0010EA  50DF               	movf	indf2,w,c
  6282  0010EC  5C0D               	subwf	i1recv_msg@maxlength,w,c
  6283  0010EE  B0D8               	btfsc	status,0,c
  6284  0010F0  D002               	goto	i1l3539
  6285                           
  6286                           ;messages.c: 78: return (-3);
  6287  0010F2  0EFD               	movlw	253
  6288  0010F4  0012               	return	
  6289  0010F6                     i1l3539:
  6290                           
  6291                           ;messages.c: 79: }
  6292                           ;messages.c: 81: tlength = qmsg->length;
  6293  0010F6  EE20 F001          	lfsr	2,1
  6294  0010FA  5017               	movf	i1recv_msg@qmsg,w,c
  6295  0010FC  26D9               	addwf	fsr2l,f,c
  6296  0010FE  5018               	movf	i1recv_msg@qmsg+1,w,c
  6297  001100  22DA               	addwfc	fsr2h,f,c
  6298  001102  50DF               	movf	indf2,w,c
  6299  001104  6E12               	movwf	??i1_recv_msg& (0+255),c
  6300  001106  5012               	movf	??i1_recv_msg,w,c
  6301  001108  6E15               	movwf	i1recv_msg@tlength,c
  6302  00110A  6A16               	clrf	i1recv_msg@tlength+1,c
  6303                           
  6304                           ;messages.c: 82: memcpy(data, qmsg->data, tlength);
  6305  00110C  C011  F002         	movff	i1recv_msg@data+1,i1memcpy@d1+1
  6306  001110  C010  F001         	movff	i1recv_msg@data,i1memcpy@d1
  6307  001114  0E03               	movlw	3
  6308  001116  2417               	addwf	i1recv_msg@qmsg,w,c
  6309  001118  6E12               	movwf	??i1_recv_msg& (0+255),c
  6310  00111A  0E00               	movlw	0
  6311  00111C  2018               	addwfc	i1recv_msg@qmsg+1,w,c
  6312  00111E  6E13               	movwf	(??i1_recv_msg+1)& (0+255),c
  6313  001120  C012  F003         	movff	??i1_recv_msg,i1memcpy@s1
  6314  001124  C013  F004         	movff	??i1_recv_msg+1,i1memcpy@s1+1
  6315  001128  C015  F005         	movff	i1recv_msg@tlength,i1memcpy@n
  6316  00112C  C016  F006         	movff	i1recv_msg@tlength+1,i1memcpy@n+1
  6317  001130  ECBD  F00B         	call	i1_memcpy	;wreg free
  6318                           
  6319                           ;messages.c: 88: qptr->cur_read_ind = (qptr->cur_read_ind + 1) % 8;
  6320  001134  EE20 F089          	lfsr	2,137
  6321  001138  500B               	movf	i1recv_msg@qptr,w,c
  6322  00113A  26D9               	addwf	fsr2l,f,c
  6323  00113C  500C               	movf	i1recv_msg@qptr+1,w,c
  6324  00113E  22DA               	addwfc	fsr2h,f,c
  6325  001140  EE10 F089          	lfsr	1,137
  6326  001144  500B               	movf	i1recv_msg@qptr,w,c
  6327  001146  26E1               	addwf	fsr1l,f,c
  6328  001148  500C               	movf	i1recv_msg@qptr+1,w,c
  6329  00114A  22E2               	addwfc	fsr1h,f,c
  6330  00114C  50E7               	movf	indf1,w,c
  6331  00114E  6E12               	movwf	??i1_recv_msg& (0+255),c
  6332  001150  2812               	incf	??i1_recv_msg,w,c
  6333  001152  0B07               	andlw	7
  6334  001154  6EDF               	movwf	indf2,c
  6335                           
  6336                           ;messages.c: 90: (*msgtype) = qmsg->msgtype;
  6337  001156  EE20 F002          	lfsr	2,2
  6338  00115A  5017               	movf	i1recv_msg@qmsg,w,c
  6339  00115C  26D9               	addwf	fsr2l,f,c
  6340  00115E  5018               	movf	i1recv_msg@qmsg+1,w,c
  6341  001160  22DA               	addwfc	fsr2h,f,c
  6342  001162  C00E  FFE1         	movff	i1recv_msg@msgtype,fsr1l
  6343  001166  C00F  FFE2         	movff	i1recv_msg@msgtype+1,fsr1h
  6344  00116A  CFDF FFE7          	movff	indf2,indf1
  6345                           
  6346                           ;messages.c: 92: qmsg->full = 0;
  6347  00116E  C017  FFD9         	movff	i1recv_msg@qmsg,fsr2l
  6348  001172  C018  FFDA         	movff	i1recv_msg@qmsg+1,fsr2h
  6349  001176  0E00               	movlw	0
  6350  001178  6EDF               	movwf	indf2,c
  6351                           
  6352                           ;messages.c: 93: return (tlength);
  6353  00117A  5015               	movf	i1recv_msg@tlength,w,c
  6354  00117C  0012               	return	
  6355  00117E                     i1l3555:
  6356                           
  6357                           ;messages.c: 95: return (-4);
  6358  00117E  0EFC               	movlw	252
  6359  001180  0012               	return	
  6360  001182                     __end_ofi1_recv_msg:
  6361                           	opt stack 0
  6362                           pclatu	equ	0xFFB
  6363                           pclath	equ	0xFFA
  6364                           tblptru	equ	0xFF8
  6365                           tblptrh	equ	0xFF7
  6366                           tblptrl	equ	0xFF6
  6367                           tablat	equ	0xFF5
  6368                           prodh	equ	0xFF4
  6369                           prodl	equ	0xFF3
  6370                           intcon	equ	0xFF2
  6371                           postinc0	equ	0xFEE
  6372                           fsr0h	equ	0xFEA
  6373                           fsr0l	equ	0xFE9
  6374                           wreg	equ	0xFE8
  6375                           indf1	equ	0xFE7
  6376                           fsr1h	equ	0xFE2
  6377                           fsr1l	equ	0xFE1
  6378                           bsr	equ	0xFE0
  6379                           indf2	equ	0xFDF
  6380                           postinc2	equ	0xFDE
  6381                           postdec2	equ	0xFDD
  6382                           fsr2h	equ	0xFDA
  6383                           fsr2l	equ	0xFD9
  6384                           status	equ	0xFD8
  6385                           
  6386 ;; *************** function _uart_receive_interrupt_handler *****************
  6387 ;; Defined at:
  6388 ;;		line 54 in file "../src/my_uart.c"
  6389 ;; Parameters:    Size  Location     Type
  6390 ;;		None
  6391 ;; Auto vars:     Size  Location     Type
  6392 ;;  bad_start_id    1   49[COMRAM] unsigned char 
  6393 ;;  message_coun    1   51[COMRAM] unsigned char 
  6394 ;;  status          1   42[COMRAM] unsigned char 
  6395 ;;  bad_end_id      1   50[COMRAM] unsigned char 
  6396 ;;  msg_id          1   53[COMRAM] unsigned char 
  6397 ;;  status          1   43[COMRAM] unsigned char 
  6398 ;;  bad_checksum    3   44[COMRAM] unsigned char [3]
  6399 ;;  bad_counter_    2   47[COMRAM] unsigned char [2]
  6400 ;;  gooey_uart_c   14   28[COMRAM] unsigned char [14]
  6401 ;;  i               2   54[COMRAM] int 
  6402 ;;  checksum        1   52[COMRAM] unsigned char 
  6403 ;; Return value:  Size  Location     Type
  6404 ;;		None               void
  6405 ;; Registers used:
  6406 ;;		wreg, fsr1l, fsr1h, fsr2l, fsr2h, status,2, status,0, prodl, prodh, cstack
  6407 ;; Tracked objects:
  6408 ;;		On entry : 0/0
  6409 ;;		On exit  : 0/0
  6410 ;;		Unchanged: 0/0
  6411 ;; Data sizes:     COMRAM   BANK0   BANK1   BANK2   BANK3   BANK4   BANK5   BANK6   BANK7   BANK8   BANK9  BANK10  BANK1
      +1  BANK12  BANK13  BANK14
  6412 ;;      Params:         0       0       0       0       0       0       0       0       0       0       0       0       
      +0       0       0       0
  6413 ;;      Locals:        28       0       0       0       0       0       0       0       0       0       0       0       
      +0       0       0       0
  6414 ;;      Temps:          2       0       0       0       0       0       0       0       0       0       0       0       
      +0       0       0       0
  6415 ;;      Totals:        30       0       0       0       0       0       0       0       0       0       0       0       
      +0       0       0       0
  6416 ;;Total ram usage:       30 bytes
  6417 ;; Hardware stack levels used:    1
  6418 ;; Hardware stack levels required when called:    8
  6419 ;; This function calls:
  6420 ;;		_ToMainLow_sendmsg
  6421 ;;		i1_blip2
  6422 ;;		i1_blip3
  6423 ;; This function is called by:
  6424 ;;		_InterruptHandlerLow
  6425 ;; This function uses a non-reentrant model
  6426 ;;
  6427                           
  6428                           	psect	text41
  6429  0008A2                     __ptext41:
  6430                           	opt stack 0
  6431  0008A2                     _uart_receive_interrupt_handler:
  6432                           	opt stack 16
  6433                           
  6434                           ;my_uart.c: 57: static unsigned char frame[(14 + 2 + 2)];
  6435                           ;my_uart.c: 58: static unsigned char index = 0;
  6436                           ;my_uart.c: 59: static unsigned char done = 0;
  6437                           ;my_uart.c: 60: static unsigned char received_counter = 0;
  6438                           ;my_uart.c: 62: static unsigned char start_byte_bad = 0;
  6439                           ;my_uart.c: 63: static unsigned char error = 0;
  6440                           ;my_uart.c: 65: if(!done)
  6441                           
  6442                           ;incstack = 0
  6443  0008A2  664B               	tstfsz	uart_receive_interrupt_handler@done,c
  6444  0008A4  D03F               	goto	i1l3863
  6445                           
  6446                           ;my_uart.c: 66: {
  6447                           ;my_uart.c: 67: frame[index] = RCREG1;
  6448  0008A6  504D               	movf	uart_receive_interrupt_handler@index,w,c
  6449  0008A8  0D01               	mullw	1
  6450  0008AA  0100               	movlb	0	; () banked
  6451  0008AC  0EA6               	movlw	low uart_receive_interrupt_handler@frame
  6452  0008AE  24F3               	addwf	prodl,w,c
  6453  0008B0  6ED9               	movwf	fsr2l,c
  6454  0008B2  0100               	movlb	0	; () banked
  6455  0008B4  0E00               	movlw	high uart_receive_interrupt_handler@frame
  6456  0008B6  20F4               	addwfc	prodh,w,c
  6457  0008B8  6EDA               	movwf	fsr2h,c
  6458  0008BA  CFAF FFDF          	movff	4015,indf2	;volatile
  6459                           
  6460                           ; BSR set to: 0
  6461                           ;my_uart.c: 71: }
  6462                           ;my_uart.c: 72: if( index == 0 )
  6463                           
  6464                           ; BSR set to: 0
  6465                           ;my_uart.c: 69: {
  6466  0008BE  664D               	tstfsz	uart_receive_interrupt_handler@index,c
  6467  0008C0  D019               	goto	i1l3849
  6468                           
  6469                           ; BSR set to: 0
  6470                           ;my_uart.c: 73: {
  6471                           ;my_uart.c: 74: if( frame[0] != 0xff )
  6472  0008C2  0100               	movlb	0	; () banked
  6473  0008C4  29A6               	incf	uart_receive_interrupt_handler@frame& (0+255),w,b
  6474  0008C6  B4D8               	btfsc	status,2,c
  6475  0008C8  D012               	goto	i1l3847
  6476                           
  6477                           ; BSR set to: 0
  6478                           ;my_uart.c: 75: {
  6479                           ;my_uart.c: 76: if( !start_byte_bad )
  6480  0008CA  664F               	tstfsz	uart_receive_interrupt_handler@start_byte_bad,c
  6481  0008CC  D00D               	goto	i1l3841
  6482                           
  6483                           ; BSR set to: 0
  6484                           ;my_uart.c: 77: {
  6485                           ;my_uart.c: 78: start_byte_bad = 1;
  6486  0008CE  0E01               	movlw	1
  6487  0008D0  6E4F               	movwf	uart_receive_interrupt_handler@start_byte_bad,c
  6488                           
  6489                           ; BSR set to: 0
  6490                           ;my_uart.c: 79: unsigned char bad_start_id = received_counter;
  6491  0008D2  C04E  F032         	movff	uart_receive_interrupt_handler@received_counter,uart_receive_interrupt_handler@ba
      +                          d_start_id
  6492                           
  6493                           ; BSR set to: 0
  6494                           ;my_uart.c: 80: ToMainLow_sendmsg(1,34,(void *)&bad_start_id);
  6495  0008D6  0E22               	movlw	34
  6496  0008D8  6E17               	movwf	ToMainLow_sendmsg@msgtype,c
  6497  0008DA  0E00               	movlw	high uart_receive_interrupt_handler@bad_start_id
  6498  0008DC  6E19               	movwf	ToMainLow_sendmsg@data+1,c
  6499  0008DE  0E32               	movlw	low uart_receive_interrupt_handler@bad_start_id
  6500  0008E0  6E18               	movwf	ToMainLow_sendmsg@data,c
  6501  0008E2  0E01               	movlw	1
  6502  0008E4  EC8E  F00D         	call	_ToMainLow_sendmsg
  6503  0008E8                     i1l3841:
  6504                           
  6505                           ;my_uart.c: 82: }
  6506                           ;my_uart.c: 83: index = 0;
  6507  0008E8  0E00               	movlw	0
  6508  0008EA  6E4D               	movwf	uart_receive_interrupt_handler@index,c
  6509  0008EC  0012               	return	
  6510  0008EE                     i1l3847:
  6511                           
  6512                           ;my_uart.c: 86: else
  6513                           ;my_uart.c: 87: {
  6514                           ;my_uart.c: 88: start_byte_bad = 0;
  6515  0008EE  0E00               	movlw	0
  6516  0008F0  6E4F               	movwf	uart_receive_interrupt_handler@start_byte_bad,c
  6517  0008F2  D017               	goto	i1l3861
  6518  0008F4                     i1l3849:
  6519                           
  6520                           ;my_uart.c: 91: else if( index >= (14 + 2 + 2) - 1 )
  6521  0008F4  0E10               	movlw	16
  6522  0008F6  644D               	cpfsgt	uart_receive_interrupt_handler@index,c
  6523  0008F8  D014               	goto	i1l3861
  6524                           
  6525                           ;my_uart.c: 92: {
  6526                           ;my_uart.c: 93: if( frame[(14 + 2 + 2) - 1] != 0xfe )
  6527  0008FA  0100               	movlb	0	; () banked
  6528  0008FC  51B7               	movf	(uart_receive_interrupt_handler@frame+17)& (0+255),w,b
  6529  0008FE  0AFE               	xorlw	254
  6530  000900  B4D8               	btfsc	status,2,c
  6531  000902  D00F               	goto	i1l3861
  6532                           
  6533                           ; BSR set to: 0
  6534                           ;my_uart.c: 94: {
  6535                           ;my_uart.c: 96: index = 0;
  6536  000904  0E00               	movlw	0
  6537  000906  6E4D               	movwf	uart_receive_interrupt_handler@index,c
  6538                           
  6539                           ; BSR set to: 0
  6540                           ;my_uart.c: 99: unsigned char bad_end_id = received_counter;
  6541  000908  C04E  F033         	movff	uart_receive_interrupt_handler@received_counter,uart_receive_interrupt_handler@ba
      +                          d_end_id
  6542                           
  6543                           ; BSR set to: 0
  6544                           ;my_uart.c: 100: ToMainLow_sendmsg(1,35,(void *)&bad_end_id);
  6545  00090C  0E23               	movlw	35
  6546  00090E  6E17               	movwf	ToMainLow_sendmsg@msgtype,c
  6547  000910  0E00               	movlw	high uart_receive_interrupt_handler@bad_end_id
  6548  000912  6E19               	movwf	ToMainLow_sendmsg@data+1,c
  6549  000914  0E33               	movlw	low uart_receive_interrupt_handler@bad_end_id
  6550  000916  6E18               	movwf	ToMainLow_sendmsg@data,c
  6551  000918  0E01               	movlw	1
  6552  00091A  EC8E  F00D         	call	_ToMainLow_sendmsg
  6553                           
  6554                           ;my_uart.c: 101: error = 1;
  6555  00091E  0E01               	movlw	1
  6556  000920  6E4C               	movwf	uart_receive_interrupt_handler@error,c
  6557  000922                     i1l3861:
  6558                           
  6559                           ;my_uart.c: 102: }
  6560                           ;my_uart.c: 103: }
  6561                           ;my_uart.c: 104: index++;
  6562  000922  2A4D               	incf	uart_receive_interrupt_handler@index,f,c
  6563  000924                     i1l3863:
  6564                           
  6565                           ;my_uart.c: 105: }
  6566                           ;my_uart.c: 107: if( index >= (14 + 2 + 2) )
  6567  000924  0E11               	movlw	17
  6568  000926  644D               	cpfsgt	uart_receive_interrupt_handler@index,c
  6569  000928  0012               	return	
  6570                           
  6571                           ;my_uart.c: 108: {
  6572                           ;my_uart.c: 109: blip2();
  6573  00092A  EC1F  F00E         	call	i1_blip2	;wreg free
  6574                           
  6575                           ;my_uart.c: 110: index = 0;
  6576  00092E  0E00               	movlw	0
  6577  000930  6E4D               	movwf	uart_receive_interrupt_handler@index,c
  6578                           
  6579                           ;my_uart.c: 112: if( received_counter != frame[1] )
  6580  000932  0100               	movlb	0	; () banked
  6581  000934  51A7               	movf	(uart_receive_interrupt_handler@frame+1)& (0+255),w,b
  6582  000936  184E               	xorwf	uart_receive_interrupt_handler@received_counter,w,c
  6583  000938  B4D8               	btfsc	status,2,c
  6584  00093A  D011               	goto	i1l3879
  6585                           
  6586                           ; BSR set to: 0
  6587                           ;my_uart.c: 113: {
  6588                           ;my_uart.c: 115: unsigned char bad_counter_id[2];
  6589                           ;my_uart.c: 116: bad_counter_id[0] = received_counter;
  6590  00093C  C04E  F030         	movff	uart_receive_interrupt_handler@received_counter,uart_receive_interrupt_handler@ba
      +                          d_counter_id
  6591                           
  6592                           ;my_uart.c: 117: bad_counter_id[1] = frame[1];
  6593  000940  C0A7  F031         	movff	uart_receive_interrupt_handler@frame+1,uart_receive_interrupt_handler@bad_counter
      +                          _id+1
  6594                           
  6595                           ; BSR set to: 0
  6596                           ;my_uart.c: 118: ToMainLow_sendmsg(2,33,(void *)&bad_counter_id);
  6597  000944  0E21               	movlw	33
  6598  000946  6E17               	movwf	ToMainLow_sendmsg@msgtype,c
  6599  000948  0E00               	movlw	high uart_receive_interrupt_handler@bad_counter_id
  6600  00094A  6E19               	movwf	ToMainLow_sendmsg@data+1,c
  6601  00094C  0E30               	movlw	low uart_receive_interrupt_handler@bad_counter_id
  6602  00094E  6E18               	movwf	ToMainLow_sendmsg@data,c
  6603  000950  0E02               	movlw	2
  6604  000952  EC8E  F00D         	call	_ToMainLow_sendmsg
  6605                           
  6606                           ;my_uart.c: 121: received_counter = frame[1];
  6607  000956  C0A7  F04E         	movff	uart_receive_interrupt_handler@frame+1,uart_receive_interrupt_handler@received_co
      +                          unter
  6608                           
  6609                           ;my_uart.c: 123: error = 1;
  6610  00095A  0E01               	movlw	1
  6611  00095C  6E4C               	movwf	uart_receive_interrupt_handler@error,c
  6612  00095E                     i1l3879:
  6613                           
  6614                           ;my_uart.c: 124: }
  6615                           ;my_uart.c: 127: unsigned char gooey_uart_center[14];
  6616                           ;my_uart.c: 128: unsigned char checksum = 0;
  6617  00095E  0E00               	movlw	0
  6618  000960  6E35               	movwf	uart_receive_interrupt_handler@checksum,c
  6619                           
  6620                           ;my_uart.c: 129: int i;
  6621                           ;my_uart.c: 130: for(i = 0; i < 14; i++)
  6622  000962  0E00               	movlw	0
  6623  000964  6E38               	movwf	uart_receive_interrupt_handler@i+1,c
  6624  000966  0E00               	movlw	0
  6625  000968  6E37               	movwf	uart_receive_interrupt_handler@i,c
  6626  00096A  5038               	movf	uart_receive_interrupt_handler@i+1,w,c
  6627  00096C  0A80               	xorlw	128
  6628  00096E  0F80               	addlw	-128
  6629  000970  0E0E               	movlw	14
  6630  000972  B4D8               	btfsc	status,2,c
  6631  000974  5C37               	subwf	uart_receive_interrupt_handler@i,w,c
  6632  000976  B0D8               	btfsc	status,0,c
  6633  000978  D021               	goto	i1l3895
  6634                           
  6635                           ;my_uart.c: 131: {
  6636                           ;my_uart.c: 132: gooey_uart_center[i] = frame[i+2];
  6637  00097A  0E02               	movlw	2
  6638  00097C  2437               	addwf	uart_receive_interrupt_handler@i,w,c
  6639  00097E  6E1B               	movwf	??_uart_receive_interrupt_handler& (0+255),c
  6640  000980  0E00               	movlw	0
  6641  000982  2038               	addwfc	uart_receive_interrupt_handler@i+1,w,c
  6642  000984  6E1C               	movwf	(??_uart_receive_interrupt_handler+1)& (0+255),c
  6643  000986  0100               	movlb	0	; () banked
  6644  000988  0EA6               	movlw	low uart_receive_interrupt_handler@frame
  6645  00098A  241B               	addwf	??_uart_receive_interrupt_handler,w,c
  6646  00098C  6ED9               	movwf	fsr2l,c
  6647  00098E  0100               	movlb	0	; () banked
  6648  000990  0E00               	movlw	high uart_receive_interrupt_handler@frame
  6649  000992  201C               	addwfc	??_uart_receive_interrupt_handler+1,w,c
  6650  000994  6EDA               	movwf	fsr2h,c
  6651  000996  0E1D               	movlw	low uart_receive_interrupt_handler@gooey_uart_center
  6652  000998  2437               	addwf	uart_receive_interrupt_handler@i,w,c
  6653  00099A  6EE1               	movwf	fsr1l,c
  6654  00099C  0E00               	movlw	high uart_receive_interrupt_handler@gooey_uart_center
  6655  00099E  2038               	addwfc	uart_receive_interrupt_handler@i+1,w,c
  6656  0009A0  6EE2               	movwf	fsr1h,c
  6657  0009A2  CFDF FFE7          	movff	indf2,indf1
  6658                           
  6659                           ; BSR set to: 0
  6660                           ;my_uart.c: 133: checksum ^= gooey_uart_center[i];
  6661  0009A6  0E1D               	movlw	low uart_receive_interrupt_handler@gooey_uart_center
  6662  0009A8  2437               	addwf	uart_receive_interrupt_handler@i,w,c
  6663  0009AA  6ED9               	movwf	fsr2l,c
  6664  0009AC  0E00               	movlw	high uart_receive_interrupt_handler@gooey_uart_center
  6665  0009AE  2038               	addwfc	uart_receive_interrupt_handler@i+1,w,c
  6666  0009B0  6EDA               	movwf	fsr2h,c
  6667  0009B2  50DF               	movf	indf2,w,c
  6668  0009B4  1A35               	xorwf	uart_receive_interrupt_handler@checksum,f,c
  6669                           
  6670                           ; BSR set to: 0
  6671  0009B6  4A37               	infsnz	uart_receive_interrupt_handler@i,f,c
  6672  0009B8  2A38               	incf	uart_receive_interrupt_handler@i+1,f,c
  6673  0009BA  D7D7               	goto	L7
  6674  0009BC                     i1l3895:
  6675                           
  6676                           ;my_uart.c: 134: }
  6677                           ;my_uart.c: 136: if( checksum != frame[(14 + 2 + 2) - 2] )
  6678  0009BC  0100               	movlb	0	; () banked
  6679  0009BE  51B6               	movf	(uart_receive_interrupt_handler@frame+16)& (0+255),w,b
  6680  0009C0  1835               	xorwf	uart_receive_interrupt_handler@checksum,w,c
  6681  0009C2  B4D8               	btfsc	status,2,c
  6682  0009C4  D011               	goto	i1l3903
  6683                           
  6684                           ; BSR set to: 0
  6685                           ;my_uart.c: 137: {
  6686                           ;my_uart.c: 139: unsigned char bad_checksum_message[3];
  6687                           ;my_uart.c: 140: bad_checksum_message[0] = received_counter;
  6688  0009C6  C04E  F02D         	movff	uart_receive_interrupt_handler@received_counter,uart_receive_interrupt_handler@ba
      +                          d_checksum_message
  6689                           
  6690                           ;my_uart.c: 141: bad_checksum_message[1] = frame[(14 + 2 + 2) - 2];
  6691  0009CA  C0B6  F02E         	movff	uart_receive_interrupt_handler@frame+16,uart_receive_interrupt_handler@bad_checks
      +                          um_message+1
  6692                           
  6693                           ;my_uart.c: 142: bad_checksum_message[2] = checksum;
  6694  0009CE  C035  F02F         	movff	uart_receive_interrupt_handler@checksum,uart_receive_interrupt_handler@bad_checks
      +                          um_message+2
  6695                           
  6696                           ; BSR set to: 0
  6697                           ;my_uart.c: 143: ToMainLow_sendmsg(3,32,(void *)&bad_checksum_message);
  6698  0009D2  0E20               	movlw	32
  6699  0009D4  6E17               	movwf	ToMainLow_sendmsg@msgtype,c
  6700  0009D6  0E00               	movlw	high uart_receive_interrupt_handler@bad_checksum_message
  6701  0009D8  6E19               	movwf	ToMainLow_sendmsg@data+1,c
  6702  0009DA  0E2D               	movlw	low uart_receive_interrupt_handler@bad_checksum_message
  6703  0009DC  6E18               	movwf	ToMainLow_sendmsg@data,c
  6704  0009DE  0E03               	movlw	3
  6705  0009E0  EC8E  F00D         	call	_ToMainLow_sendmsg
  6706                           
  6707                           ;my_uart.c: 144: error = 1;
  6708  0009E4  0E01               	movlw	1
  6709  0009E6  6E4C               	movwf	uart_receive_interrupt_handler@error,c
  6710  0009E8                     i1l3903:
  6711                           
  6712                           ;my_uart.c: 145: }
  6713                           ;my_uart.c: 150: if( !error )
  6714  0009E8  664C               	tstfsz	uart_receive_interrupt_handler@error,c
  6715  0009EA  D02D               	goto	i1l3923
  6716                           
  6717                           ;my_uart.c: 151: {
  6718                           ;my_uart.c: 153: unsigned char msg_id = gooey_uart_center[0];
  6719  0009EC  C01D  F036         	movff	uart_receive_interrupt_handler@gooey_uart_center,uart_receive_interrupt_handler@m
      +                          sg_id
  6720                           
  6721                           ;my_uart.c: 155: if( ( msg_id != 0x11 ) && ( msg_id != 0xf1 ) && ( msg_id != 0xf2 ) && (
      +                           msg_id != 0xf3 ) && ( msg_id != 0xf4 ) )
  6722  0009F0  5036               	movf	uart_receive_interrupt_handler@msg_id,w,c
  6723  0009F2  0A11               	xorlw	17
  6724  0009F4  B4D8               	btfsc	status,2,c
  6725  0009F6  D01C               	goto	i1l432
  6726  0009F8  5036               	movf	uart_receive_interrupt_handler@msg_id,w,c
  6727  0009FA  0AF1               	xorlw	241
  6728  0009FC  B4D8               	btfsc	status,2,c
  6729  0009FE  D018               	goto	i1l432
  6730  000A00  5036               	movf	uart_receive_interrupt_handler@msg_id,w,c
  6731  000A02  0AF2               	xorlw	242
  6732  000A04  B4D8               	btfsc	status,2,c
  6733  000A06  D014               	goto	i1l432
  6734  000A08  5036               	movf	uart_receive_interrupt_handler@msg_id,w,c
  6735  000A0A  0AF3               	xorlw	243
  6736  000A0C  B4D8               	btfsc	status,2,c
  6737  000A0E  D010               	goto	i1l432
  6738  000A10  5036               	movf	uart_receive_interrupt_handler@msg_id,w,c
  6739  000A12  0AF4               	xorlw	244
  6740  000A14  B4D8               	btfsc	status,2,c
  6741  000A16  D00C               	goto	i1l432
  6742                           
  6743                           ;my_uart.c: 156: {
  6744                           ;my_uart.c: 157: unsigned char message_count = received_counter;
  6745  000A18  C04E  F034         	movff	uart_receive_interrupt_handler@received_counter,uart_receive_interrupt_handler@me
      +                          ssage_count
  6746                           
  6747                           ;my_uart.c: 158: unsigned char status = ToMainLow_sendmsg(1,36,(void*)&message_count );
  6748  000A1C  0E24               	movlw	36
  6749  000A1E  6E17               	movwf	ToMainLow_sendmsg@msgtype,c
  6750  000A20  0E00               	movlw	high uart_receive_interrupt_handler@message_count
  6751  000A22  6E19               	movwf	ToMainLow_sendmsg@data+1,c
  6752  000A24  0E34               	movlw	low uart_receive_interrupt_handler@message_count
  6753  000A26  6E18               	movwf	ToMainLow_sendmsg@data,c
  6754  000A28  0E01               	movlw	1
  6755  000A2A  EC8E  F00D         	call	_ToMainLow_sendmsg
  6756  000A2E  6E2B               	movwf	uart_receive_interrupt_handler@status,c
  6757  000A30                     i1l432:
  6758                           
  6759                           ;my_uart.c: 159: }
  6760                           ;my_uart.c: 162: unsigned char status = ToMainLow_sendmsg(14,31,(void *) gooey_uart_cent
      +                          er );
  6761  000A30  0E1F               	movlw	31
  6762  000A32  6E17               	movwf	ToMainLow_sendmsg@msgtype,c
  6763  000A34  0E00               	movlw	high uart_receive_interrupt_handler@gooey_uart_center
  6764  000A36  6E19               	movwf	ToMainLow_sendmsg@data+1,c
  6765  000A38  0E1D               	movlw	low uart_receive_interrupt_handler@gooey_uart_center
  6766  000A3A  6E18               	movwf	ToMainLow_sendmsg@data,c
  6767  000A3C  0E0E               	movlw	14
  6768  000A3E  EC8E  F00D         	call	_ToMainLow_sendmsg
  6769  000A42  6E2C               	movwf	uart_receive_interrupt_handler@status_2584,c
  6770                           
  6771                           ;my_uart.c: 164: if( status == -1 )
  6772  000A44  D002               	goto	i1l3925
  6773  000A46                     i1l3923:
  6774                           
  6775                           ;my_uart.c: 174: else
  6776                           ;my_uart.c: 175: {
  6777                           ;my_uart.c: 176: blip3();
  6778  000A46  EC1B  F00E         	call	i1_blip3	;wreg free
  6779  000A4A                     i1l3925:
  6780                           
  6781                           ;my_uart.c: 177: }
  6782                           ;my_uart.c: 179: received_counter++;
  6783  000A4A  2A4E               	incf	uart_receive_interrupt_handler@received_counter,f,c
  6784                           
  6785                           ;my_uart.c: 180: error = 0;
  6786  000A4C  0E00               	movlw	0
  6787  000A4E  6E4C               	movwf	uart_receive_interrupt_handler@error,c
  6788  000A50  0012               	return	
  6789  000A52                     __end_of_uart_receive_interrupt_handler:
  6790                           	opt stack 0
  6791                           pclatu	equ	0xFFB
  6792                           pclath	equ	0xFFA
  6793                           tblptru	equ	0xFF8
  6794                           tblptrh	equ	0xFF7
  6795                           tblptrl	equ	0xFF6
  6796                           tablat	equ	0xFF5
  6797                           prodh	equ	0xFF4
  6798                           prodl	equ	0xFF3
  6799                           intcon	equ	0xFF2
  6800                           postinc0	equ	0xFEE
  6801                           fsr0h	equ	0xFEA
  6802                           fsr0l	equ	0xFE9
  6803                           wreg	equ	0xFE8
  6804                           indf1	equ	0xFE7
  6805                           fsr1h	equ	0xFE2
  6806                           fsr1l	equ	0xFE1
  6807                           bsr	equ	0xFE0
  6808                           indf2	equ	0xFDF
  6809                           postinc2	equ	0xFDE
  6810                           postdec2	equ	0xFDD
  6811                           fsr2h	equ	0xFDA
  6812                           fsr2l	equ	0xFD9
  6813                           status	equ	0xFD8
  6814                           
  6815 ;; *************** function i1_blip3 *****************
  6816 ;; Defined at:
  6817 ;;		line 32 in file "../src/debug.c"
  6818 ;; Parameters:    Size  Location     Type
  6819 ;;		None
  6820 ;; Auto vars:     Size  Location     Type
  6821 ;;		None
  6822 ;; Return value:  Size  Location     Type
  6823 ;;		None               void
  6824 ;; Registers used:
  6825 ;;		None
  6826 ;; Tracked objects:
  6827 ;;		On entry : 0/0
  6828 ;;		On exit  : 0/0
  6829 ;;		Unchanged: 0/0
  6830 ;; Data sizes:     COMRAM   BANK0   BANK1   BANK2   BANK3   BANK4   BANK5   BANK6   BANK7   BANK8   BANK9  BANK10  BANK1
      +1  BANK12  BANK13  BANK14
  6831 ;;      Params:         0       0       0       0       0       0       0       0       0       0       0       0       
      +0       0       0       0
  6832 ;;      Locals:         0       0       0       0       0       0       0       0       0       0       0       0       
      +0       0       0       0
  6833 ;;      Temps:          0       0       0       0       0       0       0       0       0       0       0       0       
      +0       0       0       0
  6834 ;;      Totals:         0       0       0       0       0       0       0       0       0       0       0       0       
      +0       0       0       0
  6835 ;;Total ram usage:        0 bytes
  6836 ;; Hardware stack levels used:    1
  6837 ;; Hardware stack levels required when called:    5
  6838 ;; This function calls:
  6839 ;;		Nothing
  6840 ;; This function is called by:
  6841 ;;		_uart_receive_interrupt_handler
  6842 ;; This function uses a non-reentrant model
  6843 ;;
  6844                           
  6845                           	psect	text42
  6846  001C36                     __ptext42:
  6847                           	opt stack 0
  6848  001C36                     i1_blip3:
  6849                           	opt stack 18
  6850                           
  6851                           ;debug.c: 34: LATDbits.LD6 = 0;
  6852                           
  6853                           ;incstack = 0
  6854  001C36  9C8C               	bcf	3980,6,c	;volatile
  6855                           
  6856                           ;debug.c: 35: LATDbits.LD6 = 1;
  6857  001C38  8C8C               	bsf	3980,6,c	;volatile
  6858                           
  6859                           ;debug.c: 36: LATDbits.LD6 = 0;
  6860  001C3A  9C8C               	bcf	3980,6,c	;volatile
  6861  001C3C  0012               	return	
  6862  001C3E                     __end_ofi1_blip3:
  6863                           	opt stack 0
  6864                           pclatu	equ	0xFFB
  6865                           pclath	equ	0xFFA
  6866                           tblptru	equ	0xFF8
  6867                           tblptrh	equ	0xFF7
  6868                           tblptrl	equ	0xFF6
  6869                           tablat	equ	0xFF5
  6870                           prodh	equ	0xFF4
  6871                           prodl	equ	0xFF3
  6872                           intcon	equ	0xFF2
  6873                           postinc0	equ	0xFEE
  6874                           fsr0h	equ	0xFEA
  6875                           fsr0l	equ	0xFE9
  6876                           wreg	equ	0xFE8
  6877                           indf1	equ	0xFE7
  6878                           fsr1h	equ	0xFE2
  6879                           fsr1l	equ	0xFE1
  6880                           bsr	equ	0xFE0
  6881                           indf2	equ	0xFDF
  6882                           postinc2	equ	0xFDE
  6883                           postdec2	equ	0xFDD
  6884                           fsr2h	equ	0xFDA
  6885                           fsr2l	equ	0xFD9
  6886                           status	equ	0xFD8
  6887                           
  6888 ;; *************** function i1_blip2 *****************
  6889 ;; Defined at:
  6890 ;;		line 25 in file "../src/debug.c"
  6891 ;; Parameters:    Size  Location     Type
  6892 ;;		None
  6893 ;; Auto vars:     Size  Location     Type
  6894 ;;		None
  6895 ;; Return value:  Size  Location     Type
  6896 ;;		None               void
  6897 ;; Registers used:
  6898 ;;		None
  6899 ;; Tracked objects:
  6900 ;;		On entry : 0/0
  6901 ;;		On exit  : 0/0
  6902 ;;		Unchanged: 0/0
  6903 ;; Data sizes:     COMRAM   BANK0   BANK1   BANK2   BANK3   BANK4   BANK5   BANK6   BANK7   BANK8   BANK9  BANK10  BANK1
      +1  BANK12  BANK13  BANK14
  6904 ;;      Params:         0       0       0       0       0       0       0       0       0       0       0       0       
      +0       0       0       0
  6905 ;;      Locals:         0       0       0       0       0       0       0       0       0       0       0       0       
      +0       0       0       0
  6906 ;;      Temps:          0       0       0       0       0       0       0       0       0       0       0       0       
      +0       0       0       0
  6907 ;;      Totals:         0       0       0       0       0       0       0       0       0       0       0       0       
      +0       0       0       0
  6908 ;;Total ram usage:        0 bytes
  6909 ;; Hardware stack levels used:    1
  6910 ;; Hardware stack levels required when called:    5
  6911 ;; This function calls:
  6912 ;;		Nothing
  6913 ;; This function is called by:
  6914 ;;		_uart_receive_interrupt_handler
  6915 ;; This function uses a non-reentrant model
  6916 ;;
  6917                           
  6918                           	psect	text43
  6919  001C3E                     __ptext43:
  6920                           	opt stack 0
  6921  001C3E                     i1_blip2:
  6922                           	opt stack 18
  6923                           
  6924                           ;debug.c: 27: LATDbits.LD5 = 0;
  6925                           
  6926                           ;incstack = 0
  6927  001C3E  9A8C               	bcf	3980,5,c	;volatile
  6928                           
  6929                           ;debug.c: 28: LATDbits.LD5 = 1;
  6930  001C40  8A8C               	bsf	3980,5,c	;volatile
  6931                           
  6932                           ;debug.c: 29: LATDbits.LD5 = 0;
  6933  001C42  9A8C               	bcf	3980,5,c	;volatile
  6934  001C44  0012               	return	
  6935  001C46                     __end_ofi1_blip2:
  6936                           	opt stack 0
  6937                           pclatu	equ	0xFFB
  6938                           pclath	equ	0xFFA
  6939                           tblptru	equ	0xFF8
  6940                           tblptrh	equ	0xFF7
  6941                           tblptrl	equ	0xFF6
  6942                           tablat	equ	0xFF5
  6943                           prodh	equ	0xFF4
  6944                           prodl	equ	0xFF3
  6945                           intcon	equ	0xFF2
  6946                           postinc0	equ	0xFEE
  6947                           fsr0h	equ	0xFEA
  6948                           fsr0l	equ	0xFE9
  6949                           wreg	equ	0xFE8
  6950                           indf1	equ	0xFE7
  6951                           fsr1h	equ	0xFE2
  6952                           fsr1l	equ	0xFE1
  6953                           bsr	equ	0xFE0
  6954                           indf2	equ	0xFDF
  6955                           postinc2	equ	0xFDE
  6956                           postdec2	equ	0xFDD
  6957                           fsr2h	equ	0xFDA
  6958                           fsr2l	equ	0xFD9
  6959                           status	equ	0xFD8
  6960                           
  6961 ;; *************** function _timer1_int_handler *****************
  6962 ;; Defined at:
  6963 ;;		line 38 in file "../src/user_interrupts.c"
  6964 ;; Parameters:    Size  Location     Type
  6965 ;;		None
  6966 ;; Auto vars:     Size  Location     Type
  6967 ;;  result          2   26[COMRAM] unsigned int 
  6968 ;; Return value:  Size  Location     Type
  6969 ;;		None               void
  6970 ;; Registers used:
  6971 ;;		wreg, fsr1l, fsr1h, fsr2l, fsr2h, status,2, status,0, prodl, prodh, cstack
  6972 ;; Tracked objects:
  6973 ;;		On entry : 0/0
  6974 ;;		On exit  : 0/0
  6975 ;;		Unchanged: 0/0
  6976 ;; Data sizes:     COMRAM   BANK0   BANK1   BANK2   BANK3   BANK4   BANK5   BANK6   BANK7   BANK8   BANK9  BANK10  BANK1
      +1  BANK12  BANK13  BANK14
  6977 ;;      Params:         0       0       0       0       0       0       0       0       0       0       0       0       
      +0       0       0       0
  6978 ;;      Locals:         2       0       0       0       0       0       0       0       0       0       0       0       
      +0       0       0       0
  6979 ;;      Temps:          0       0       0       0       0       0       0       0       0       0       0       0       
      +0       0       0       0
  6980 ;;      Totals:         2       0       0       0       0       0       0       0       0       0       0       0       
      +0       0       0       0
  6981 ;;Total ram usage:        2 bytes
  6982 ;; Hardware stack levels used:    1
  6983 ;; Hardware stack levels required when called:    8
  6984 ;; This function calls:
  6985 ;;		_ReadTimer1
  6986 ;;		_ToMainLow_sendmsg
  6987 ;;		_WriteTimer1
  6988 ;; This function is called by:
  6989 ;;		_InterruptHandlerLow
  6990 ;; This function uses a non-reentrant model
  6991 ;;
  6992                           
  6993                           	psect	text44
  6994  001A7E                     __ptext44:
  6995                           	opt stack 0
  6996  001A7E                     _timer1_int_handler:
  6997                           	opt stack 16
  6998                           
  6999                           ;user_interrupts.c: 40: unsigned int result;
  7000                           ;user_interrupts.c: 47: result = ReadTimer1();
  7001                           
  7002                           ;incstack = 0
  7003  001A7E  ECD1  F00D         	call	_ReadTimer1	;wreg free
  7004  001A82  C001  F01B         	movff	?_ReadTimer1,timer1_int_handler@result
  7005  001A86  C002  F01C         	movff	?_ReadTimer1+1,timer1_int_handler@result+1
  7006                           
  7007                           ;user_interrupts.c: 48: ToMainLow_sendmsg(0, 11, (void *) 0);
  7008  001A8A  0E0B               	movlw	11
  7009  001A8C  6E17               	movwf	ToMainLow_sendmsg@msgtype,c
  7010  001A8E  0E00               	movlw	0
  7011  001A90  6E19               	movwf	ToMainLow_sendmsg@data+1,c
  7012  001A92  0E00               	movlw	0
  7013  001A94  6E18               	movwf	ToMainLow_sendmsg@data,c
  7014  001A96  0E00               	movlw	0
  7015  001A98  EC8E  F00D         	call	_ToMainLow_sendmsg
  7016                           
  7017                           ;user_interrupts.c: 51: WriteTimer1(0);
  7018  001A9C  0E00               	movlw	0
  7019  001A9E  6E02               	movwf	WriteTimer1@timer1+1,c
  7020  001AA0  0E00               	movlw	0
  7021  001AA2  6E01               	movwf	WriteTimer1@timer1,c
  7022  001AA4  ECC8  F00D         	call	_WriteTimer1	;wreg free
  7023  001AA8  0012               	return	
  7024  001AAA                     __end_of_timer1_int_handler:
  7025                           	opt stack 0
  7026                           pclatu	equ	0xFFB
  7027                           pclath	equ	0xFFA
  7028                           tblptru	equ	0xFF8
  7029                           tblptrh	equ	0xFF7
  7030                           tblptrl	equ	0xFF6
  7031                           tablat	equ	0xFF5
  7032                           prodh	equ	0xFF4
  7033                           prodl	equ	0xFF3
  7034                           intcon	equ	0xFF2
  7035                           postinc0	equ	0xFEE
  7036                           fsr0h	equ	0xFEA
  7037                           fsr0l	equ	0xFE9
  7038                           wreg	equ	0xFE8
  7039                           indf1	equ	0xFE7
  7040                           fsr1h	equ	0xFE2
  7041                           fsr1l	equ	0xFE1
  7042                           bsr	equ	0xFE0
  7043                           indf2	equ	0xFDF
  7044                           postinc2	equ	0xFDE
  7045                           postdec2	equ	0xFDD
  7046                           fsr2h	equ	0xFDA
  7047                           fsr2l	equ	0xFD9
  7048                           status	equ	0xFD8
  7049                           
  7050 ;; *************** function _WriteTimer1 *****************
  7051 ;; Defined at:
  7052 ;;		line 14 in file "C:\Program Files (x86)\Microchip\xc8\v1.32\sources\pic18\plib\Timers\t1write.c"
  7053 ;; Parameters:    Size  Location     Type
  7054 ;;  timer1          2    0[COMRAM] unsigned int 
  7055 ;; Auto vars:     Size  Location     Type
  7056 ;;  timer           2    2[COMRAM] struct Timers
  7057 ;; Return value:  Size  Location     Type
  7058 ;;		None               void
  7059 ;; Registers used:
  7060 ;;		None
  7061 ;; Tracked objects:
  7062 ;;		On entry : 0/0
  7063 ;;		On exit  : 0/0
  7064 ;;		Unchanged: 0/0
  7065 ;; Data sizes:     COMRAM   BANK0   BANK1   BANK2   BANK3   BANK4   BANK5   BANK6   BANK7   BANK8   BANK9  BANK10  BANK1
      +1  BANK12  BANK13  BANK14
  7066 ;;      Params:         2       0       0       0       0       0       0       0       0       0       0       0       
      +0       0       0       0
  7067 ;;      Locals:         2       0       0       0       0       0       0       0       0       0       0       0       
      +0       0       0       0
  7068 ;;      Temps:          0       0       0       0       0       0       0       0       0       0       0       0       
      +0       0       0       0
  7069 ;;      Totals:         4       0       0       0       0       0       0       0       0       0       0       0       
      +0       0       0       0
  7070 ;;Total ram usage:        4 bytes
  7071 ;; Hardware stack levels used:    1
  7072 ;; Hardware stack levels required when called:    5
  7073 ;; This function calls:
  7074 ;;		Nothing
  7075 ;; This function is called by:
  7076 ;;		_timer1_int_handler
  7077 ;; This function uses a non-reentrant model
  7078 ;;
  7079                           
  7080                           	psect	text45
  7081  001B90                     __ptext45:
  7082                           	opt stack 0
  7083  001B90                     _WriteTimer1:
  7084                           	opt stack 18
  7085                           
  7086                           ;incstack = 0
  7087  001B90  C001  F003         	movff	WriteTimer1@timer1,WriteTimer1@timer
  7088  001B94  C002  F004         	movff	WriteTimer1@timer1+1,WriteTimer1@timer+1
  7089  001B98  C004  FFCF         	movff	WriteTimer1@timer+1,4047	;volatile
  7090  001B9C  C003  FFCE         	movff	WriteTimer1@timer,4046	;volatile
  7091  001BA0  0012               	return	
  7092  001BA2                     __end_of_WriteTimer1:
  7093                           	opt stack 0
  7094                           pclatu	equ	0xFFB
  7095                           pclath	equ	0xFFA
  7096                           tblptru	equ	0xFF8
  7097                           tblptrh	equ	0xFF7
  7098                           tblptrl	equ	0xFF6
  7099                           tablat	equ	0xFF5
  7100                           prodh	equ	0xFF4
  7101                           prodl	equ	0xFF3
  7102                           intcon	equ	0xFF2
  7103                           postinc0	equ	0xFEE
  7104                           fsr0h	equ	0xFEA
  7105                           fsr0l	equ	0xFE9
  7106                           wreg	equ	0xFE8
  7107                           indf1	equ	0xFE7
  7108                           fsr1h	equ	0xFE2
  7109                           fsr1l	equ	0xFE1
  7110                           bsr	equ	0xFE0
  7111                           indf2	equ	0xFDF
  7112                           postinc2	equ	0xFDE
  7113                           postdec2	equ	0xFDD
  7114                           fsr2h	equ	0xFDA
  7115                           fsr2l	equ	0xFD9
  7116                           status	equ	0xFD8
  7117                           
  7118 ;; *************** function _ToMainLow_sendmsg *****************
  7119 ;; Defined at:
  7120 ;;		line 104 in file "../src/messages.c"
  7121 ;; Parameters:    Size  Location     Type
  7122 ;;  length          1    wreg     unsigned char 
  7123 ;;  msgtype         1   22[COMRAM] unsigned char 
  7124 ;;  data            2   23[COMRAM] PTR void 
  7125 ;;		 -> NULL(0), uart_receive_interrupt_handler@message_count(1), uart_receive_interrupt_handler@bad_checksum_message(3)
      +, uart_receive_interrupt_handler@gooey_uart_center(14), 
  7126 ;;		 -> uart_receive_interrupt_handler@bad_counter_id(2), uart_receive_interrupt_handler@bad_end_id(1), uart_receive_int
      +errupt_handler@bad_start_id(1), 
  7127 ;; Auto vars:     Size  Location     Type
  7128 ;;  length          1   25[COMRAM] unsigned char 
  7129 ;; Return value:  Size  Location     Type
  7130 ;;                  1    wreg      char 
  7131 ;; Registers used:
  7132 ;;		wreg, fsr1l, fsr1h, fsr2l, fsr2h, status,2, status,0, prodl, prodh, cstack
  7133 ;; Tracked objects:
  7134 ;;		On entry : 0/0
  7135 ;;		On exit  : 0/0
  7136 ;;		Unchanged: 0/0
  7137 ;; Data sizes:     COMRAM   BANK0   BANK1   BANK2   BANK3   BANK4   BANK5   BANK6   BANK7   BANK8   BANK9  BANK10  BANK1
      +1  BANK12  BANK13  BANK14
  7138 ;;      Params:         3       0       0       0       0       0       0       0       0       0       0       0       
      +0       0       0       0
  7139 ;;      Locals:         1       0       0       0       0       0       0       0       0       0       0       0       
      +0       0       0       0
  7140 ;;      Temps:          0       0       0       0       0       0       0       0       0       0       0       0       
      +0       0       0       0
  7141 ;;      Totals:         4       0       0       0       0       0       0       0       0       0       0       0       
      +0       0       0       0
  7142 ;;Total ram usage:        4 bytes
  7143 ;; Hardware stack levels used:    1
  7144 ;; Hardware stack levels required when called:    7
  7145 ;; This function calls:
  7146 ;;		i1_send_msg
  7147 ;; This function is called by:
  7148 ;;		_uart_receive_interrupt_handler
  7149 ;;		_timer1_int_handler
  7150 ;; This function uses a non-reentrant model
  7151 ;;
  7152                           
  7153                           	psect	text46
  7154  001B1C                     __ptext46:
  7155                           	opt stack 0
  7156  001B1C                     _ToMainLow_sendmsg:
  7157                           	opt stack 16
  7158                           
  7159                           ;incstack = 0
  7160                           ;ToMainLow_sendmsg@length stored from wreg
  7161  001B1C  6E1A               	movwf	ToMainLow_sendmsg@length,c
  7162                           
  7163                           ;messages.c: 110: return (send_msg(&ToMainLow_MQ, length, msgtype, data));
  7164  001B1E  0101               	movlb	1	; () banked
  7165  001B20  0E01               	movlw	high _ToMainLow_MQ
  7166  001B22  6E0C               	movwf	i1send_msg@qptr+1,c
  7167  001B24  0101               	movlb	1	; () banked
  7168  001B26  0E00               	movlw	low _ToMainLow_MQ
  7169  001B28  6E0B               	movwf	i1send_msg@qptr,c
  7170  001B2A  C01A  F00D         	movff	ToMainLow_sendmsg@length,i1send_msg@length
  7171  001B2E  C017  F00E         	movff	ToMainLow_sendmsg@msgtype,i1send_msg@msgtype
  7172  001B32  C019  F010         	movff	ToMainLow_sendmsg@data+1,i1send_msg@data+1
  7173  001B36  C018  F00F         	movff	ToMainLow_sendmsg@data,i1send_msg@data
  7174  001B3A  ECC1  F008         	call	i1_send_msg	;wreg free
  7175  001B3E  0012               	return	
  7176  001B40                     __end_of_ToMainLow_sendmsg:
  7177                           	opt stack 0
  7178                           pclatu	equ	0xFFB
  7179                           pclath	equ	0xFFA
  7180                           tblptru	equ	0xFF8
  7181                           tblptrh	equ	0xFF7
  7182                           tblptrl	equ	0xFF6
  7183                           tablat	equ	0xFF5
  7184                           prodh	equ	0xFF4
  7185                           prodl	equ	0xFF3
  7186                           intcon	equ	0xFF2
  7187                           postinc0	equ	0xFEE
  7188                           fsr0h	equ	0xFEA
  7189                           fsr0l	equ	0xFE9
  7190                           wreg	equ	0xFE8
  7191                           indf1	equ	0xFE7
  7192                           fsr1h	equ	0xFE2
  7193                           fsr1l	equ	0xFE1
  7194                           bsr	equ	0xFE0
  7195                           indf2	equ	0xFDF
  7196                           postinc2	equ	0xFDE
  7197                           postdec2	equ	0xFDD
  7198                           fsr2h	equ	0xFDA
  7199                           fsr2l	equ	0xFD9
  7200                           status	equ	0xFD8
  7201                           
  7202 ;; *************** function i1_send_msg *****************
  7203 ;; Defined at:
  7204 ;;		line 25 in file "../src/messages.c"
  7205 ;; Parameters:    Size  Location     Type
  7206 ;;  qptr            2   10[COMRAM] PTR struct __msg_queue
  7207 ;;		 -> FromMainHigh_MQ(138), FromMainLow_MQ(138), ToMainHigh_MQ(138), ToMainLow_MQ(138), 
  7208 ;;  length          1   12[COMRAM] unsigned char 
  7209 ;;  msgtype         1   13[COMRAM] unsigned char 
  7210 ;;  data            2   14[COMRAM] PTR void 
  7211 ;;		 -> NULL(0), timer0_int_handler@val(2), timer1_lthread@i2c_msg(14), uart_receive_interrupt_handler@message_count(1),
      + 
  7212 ;;		 -> uart_receive_interrupt_handler@bad_checksum_message(3), uart_receive_interrupt_handler@gooey_uart_center(14), ua
      +rt_receive_interrupt_handler@bad_counter_id(2), uart_receive_interrupt_handler@bad_end_id(1), 
  7213 ;;		 -> uart_receive_interrupt_handler@bad_start_id(1), main@uart_response(14), main@sensor_data(14), main@ic(38), 
  7214 ;;		 -> main@t1thread_data(17), 
  7215 ;; Auto vars:     Size  Location     Type
  7216 ;;  send_msg        2   20[COMRAM] PTR struct __msg
  7217 ;;		 -> FromMainLow_MQ.queue(136), FromMainHigh_MQ.queue(136), ToMainHigh_MQ.queue(136), ToMainLow_MQ.queue(136), 
  7218 ;;		 -> FromMainHigh_MQ(138), FromMainLow_MQ(138), ToMainHigh_MQ(138), ToMainLow_MQ(138), 
  7219 ;;  send_msg        2   17[COMRAM] unsigned int 
  7220 ;;  send_msg        1   19[COMRAM] unsigned char 
  7221 ;; Return value:  Size  Location     Type
  7222 ;;                  1    wreg      char 
  7223 ;; Registers used:
  7224 ;;		wreg, fsr1l, fsr1h, fsr2l, fsr2h, status,2, status,0, prodl, prodh, cstack
  7225 ;; Tracked objects:
  7226 ;;		On entry : 0/0
  7227 ;;		On exit  : 0/0
  7228 ;;		Unchanged: 0/0
  7229 ;; Data sizes:     COMRAM   BANK0   BANK1   BANK2   BANK3   BANK4   BANK5   BANK6   BANK7   BANK8   BANK9  BANK10  BANK1
      +1  BANK12  BANK13  BANK14
  7230 ;;      Params:         6       0       0       0       0       0       0       0       0       0       0       0       
      +0       0       0       0
  7231 ;;      Locals:         5       0       0       0       0       0       0       0       0       0       0       0       
      +0       0       0       0
  7232 ;;      Temps:          1       0       0       0       0       0       0       0       0       0       0       0       
      +0       0       0       0
  7233 ;;      Totals:        12       0       0       0       0       0       0       0       0       0       0       0       
      +0       0       0       0
  7234 ;;Total ram usage:       12 bytes
  7235 ;; Hardware stack levels used:    1
  7236 ;; Hardware stack levels required when called:    6
  7237 ;; This function calls:
  7238 ;;		i1_memcpy
  7239 ;; This function is called by:
  7240 ;;		_ToMainLow_sendmsg
  7241 ;; This function uses a non-reentrant model
  7242 ;;
  7243                           
  7244                           	psect	text47
  7245  001182                     __ptext47:
  7246                           	opt stack 0
  7247  001182                     i1_send_msg:
  7248                           	opt stack 16
  7249                           
  7250                           ;messages.c: 26: unsigned char slot;
  7251                           ;messages.c: 28: msg *qmsg;
  7252                           ;messages.c: 29: size_t tlength = length;
  7253                           
  7254                           ;incstack = 0
  7255  001182  C00D  F012         	movff	i1send_msg@length,i1send_msg@tlength
  7256  001186  6A13               	clrf	i1send_msg@tlength+1,c
  7257                           
  7258                           ;messages.c: 39: slot = qptr->cur_write_ind;
  7259  001188  EE20 F088          	lfsr	2,136
  7260  00118C  500B               	movf	i1send_msg@qptr,w,c
  7261  00118E  26D9               	addwf	fsr2l,f,c
  7262  001190  500C               	movf	i1send_msg@qptr+1,w,c
  7263  001192  22DA               	addwfc	fsr2h,f,c
  7264  001194  50DF               	movf	indf2,w,c
  7265  001196  6E14               	movwf	i1send_msg@slot,c
  7266                           
  7267                           ;messages.c: 40: qmsg = &(qptr->queue[slot]);
  7268  001198  5014               	movf	i1send_msg@slot,w,c
  7269  00119A  0D11               	mullw	17
  7270  00119C  50F3               	movf	prodl,w,c
  7271  00119E  240B               	addwf	i1send_msg@qptr,w,c
  7272  0011A0  6E15               	movwf	i1send_msg@qmsg,c
  7273  0011A2  50F4               	movf	prodh,w,c
  7274  0011A4  200C               	addwfc	i1send_msg@qptr+1,w,c
  7275  0011A6  6E16               	movwf	i1send_msg@qmsg+1,c
  7276                           
  7277                           ;messages.c: 42: if (qmsg->full != 0) {
  7278  0011A8  C015  FFD9         	movff	i1send_msg@qmsg,fsr2l
  7279  0011AC  C016  FFDA         	movff	i1send_msg@qmsg+1,fsr2h
  7280  0011B0  50DF               	movf	indf2,w,c
  7281  0011B2  B4D8               	btfsc	status,2,c
  7282  0011B4  D002               	goto	i1l3491
  7283                           
  7284                           ;messages.c: 43: return (-1);
  7285  0011B6  0EFF               	movlw	255
  7286  0011B8  0012               	return	
  7287  0011BA                     i1l3491:
  7288                           
  7289                           ;messages.c: 44: }
  7290                           ;messages.c: 47: qmsg->length = length;
  7291  0011BA  EE20 F001          	lfsr	2,1
  7292  0011BE  5015               	movf	i1send_msg@qmsg,w,c
  7293  0011C0  26D9               	addwf	fsr2l,f,c
  7294  0011C2  5016               	movf	i1send_msg@qmsg+1,w,c
  7295  0011C4  22DA               	addwfc	fsr2h,f,c
  7296  0011C6  C00D  FFDF         	movff	i1send_msg@length,indf2
  7297                           
  7298                           ;messages.c: 48: qmsg->msgtype = msgtype;
  7299  0011CA  EE20 F002          	lfsr	2,2
  7300  0011CE  5015               	movf	i1send_msg@qmsg,w,c
  7301  0011D0  26D9               	addwf	fsr2l,f,c
  7302  0011D2  5016               	movf	i1send_msg@qmsg+1,w,c
  7303  0011D4  22DA               	addwfc	fsr2h,f,c
  7304  0011D6  C00E  FFDF         	movff	i1send_msg@msgtype,indf2
  7305                           
  7306                           ;messages.c: 56: memcpy(qmsg->data, data, tlength);
  7307  0011DA  0E03               	movlw	3
  7308  0011DC  2415               	addwf	i1send_msg@qmsg,w,c
  7309  0011DE  6E01               	movwf	i1memcpy@d1,c
  7310  0011E0  0E00               	movlw	0
  7311  0011E2  2016               	addwfc	i1send_msg@qmsg+1,w,c
  7312  0011E4  6E02               	movwf	i1memcpy@d1+1,c
  7313  0011E6  C010  F004         	movff	i1send_msg@data+1,i1memcpy@s1+1
  7314  0011EA  C00F  F003         	movff	i1send_msg@data,i1memcpy@s1
  7315  0011EE  C012  F005         	movff	i1send_msg@tlength,i1memcpy@n
  7316  0011F2  C013  F006         	movff	i1send_msg@tlength+1,i1memcpy@n+1
  7317  0011F6  ECBD  F00B         	call	i1_memcpy	;wreg free
  7318                           
  7319                           ;messages.c: 57: qptr->cur_write_ind = (qptr->cur_write_ind + 1) % 8;
  7320  0011FA  EE20 F088          	lfsr	2,136
  7321  0011FE  500B               	movf	i1send_msg@qptr,w,c
  7322  001200  26D9               	addwf	fsr2l,f,c
  7323  001202  500C               	movf	i1send_msg@qptr+1,w,c
  7324  001204  22DA               	addwfc	fsr2h,f,c
  7325  001206  EE10 F088          	lfsr	1,136
  7326  00120A  500B               	movf	i1send_msg@qptr,w,c
  7327  00120C  26E1               	addwf	fsr1l,f,c
  7328  00120E  500C               	movf	i1send_msg@qptr+1,w,c
  7329  001210  22E2               	addwfc	fsr1h,f,c
  7330  001212  50E7               	movf	indf1,w,c
  7331  001214  6E11               	movwf	??i1_send_msg& (0+255),c
  7332  001216  2811               	incf	??i1_send_msg,w,c
  7333  001218  0B07               	andlw	7
  7334  00121A  6EDF               	movwf	indf2,c
  7335                           
  7336                           ;messages.c: 60: qmsg->full = 1;
  7337  00121C  C015  FFD9         	movff	i1send_msg@qmsg,fsr2l
  7338  001220  C016  FFDA         	movff	i1send_msg@qmsg+1,fsr2h
  7339  001224  0E01               	movlw	1
  7340  001226  6EDF               	movwf	indf2,c
  7341                           
  7342                           ;messages.c: 61: return (1);
  7343  001228  0E01               	movlw	1
  7344  00122A  0012               	return	
  7345  00122C                     __end_ofi1_send_msg:
  7346                           	opt stack 0
  7347                           pclatu	equ	0xFFB
  7348                           pclath	equ	0xFFA
  7349                           tblptru	equ	0xFF8
  7350                           tblptrh	equ	0xFF7
  7351                           tblptrl	equ	0xFF6
  7352                           tablat	equ	0xFF5
  7353                           prodh	equ	0xFF4
  7354                           prodl	equ	0xFF3
  7355                           intcon	equ	0xFF2
  7356                           postinc0	equ	0xFEE
  7357                           fsr0h	equ	0xFEA
  7358                           fsr0l	equ	0xFE9
  7359                           wreg	equ	0xFE8
  7360                           indf1	equ	0xFE7
  7361                           fsr1h	equ	0xFE2
  7362                           fsr1l	equ	0xFE1
  7363                           bsr	equ	0xFE0
  7364                           indf2	equ	0xFDF
  7365                           postinc2	equ	0xFDE
  7366                           postdec2	equ	0xFDD
  7367                           fsr2h	equ	0xFDA
  7368                           fsr2l	equ	0xFD9
  7369                           status	equ	0xFD8
  7370                           
  7371 ;; *************** function i1_memcpy *****************
  7372 ;; Defined at:
  7373 ;;		line 11 in file "C:\Program Files (x86)\Microchip\xc8\v1.32\sources\common\memcpy.c"
  7374 ;; Parameters:    Size  Location     Type
  7375 ;;  d1              2    0[COMRAM] PTR void 
  7376 ;;		 -> FromMainLow_MQ.queue(136), FromMainHigh_MQ.queue(136), ToMainHigh_MQ.queue(136), ToMainLow_MQ.queue(136), 
  7377 ;;		 -> NULL(0), timer0_int_handler@val(2), uart_transmit_interrupt_handler@data(14), FromMainHigh_MQ(138), 
  7378 ;;		 -> FromMainLow_MQ(138), ToMainHigh_MQ(138), ToMainLow_MQ(138), main@msgbuffer(15), 
  7379 ;;		 -> main@ic(38), 
  7380 ;;  s1              2    2[COMRAM] PTR const void 
  7381 ;;		 -> ToMainLow_MQ.data(14), ToMainHigh_MQ.data(14), FromMainLow_MQ.data(14), FromMainHigh_MQ.data(14), 
  7382 ;;		 -> ToMainLow_MQ.queue.data(14), ToMainHigh_MQ.queue.data(14), FromMainHigh_MQ.queue.data(14), FromMainLow_MQ.queue.
      +data(14), 
  7383 ;;		 -> NULL(0), timer0_int_handler@val(2), timer1_lthread@i2c_msg(14), uart_receive_interrupt_handler@message_count(1),
      + 
  7384 ;;		 -> uart_receive_interrupt_handler@bad_checksum_message(3), uart_receive_interrupt_handler@gooey_uart_center(14), ua
      +rt_receive_interrupt_handler@bad_counter_id(2), uart_receive_interrupt_handler@bad_end_id(1), 
  7385 ;;		 -> uart_receive_interrupt_handler@bad_start_id(1), FromMainHigh_MQ(138), FromMainLow_MQ(138), ToMainHigh_MQ(138), 
  7386 ;;		 -> ToMainLow_MQ(138), main@uart_response(14), main@sensor_data(14), main@ic(38), 
  7387 ;;		 -> main@t1thread_data(17), 
  7388 ;;  n               2    4[COMRAM] unsigned int 
  7389 ;; Auto vars:     Size  Location     Type
  7390 ;;  memcpy          2    8[COMRAM] PTR const unsigned char 
  7391 ;;		 -> ToMainLow_MQ.data(14), ToMainHigh_MQ.data(14), FromMainLow_MQ.data(14), FromMainHigh_MQ.data(14), 
  7392 ;;		 -> ToMainLow_MQ.queue.data(14), ToMainHigh_MQ.queue.data(14), FromMainHigh_MQ.queue.data(14), FromMainLow_MQ.queue.
      +data(14), 
  7393 ;;		 -> NULL(0), timer0_int_handler@val(2), timer1_lthread@i2c_msg(14), uart_receive_interrupt_handler@message_count(1),
      + 
  7394 ;;		 -> uart_receive_interrupt_handler@bad_checksum_message(3), uart_receive_interrupt_handler@gooey_uart_center(14), ua
      +rt_receive_interrupt_handler@bad_counter_id(2), uart_receive_interrupt_handler@bad_end_id(1), 
  7395 ;;		 -> uart_receive_interrupt_handler@bad_start_id(1), FromMainHigh_MQ(138), FromMainLow_MQ(138), ToMainHigh_MQ(138), 
  7396 ;;		 -> ToMainLow_MQ(138), main@uart_response(14), main@sensor_data(14), main@ic(38), 
  7397 ;;		 -> main@t1thread_data(17), 
  7398 ;;  memcpy          2    6[COMRAM] PTR unsigned char 
  7399 ;;		 -> FromMainLow_MQ.queue(136), FromMainHigh_MQ.queue(136), ToMainHigh_MQ.queue(136), ToMainLow_MQ.queue(136), 
  7400 ;;		 -> NULL(0), timer0_int_handler@val(2), uart_transmit_interrupt_handler@data(14), FromMainHigh_MQ(138), 
  7401 ;;		 -> FromMainLow_MQ(138), ToMainHigh_MQ(138), ToMainLow_MQ(138), main@msgbuffer(15), 
  7402 ;;		 -> main@ic(38), 
  7403 ;; Return value:  Size  Location     Type
  7404 ;;                  2    0[COMRAM] PTR void 
  7405 ;; Registers used:
  7406 ;;		wreg, fsr1l, fsr1h, fsr2l, fsr2h, status,2, status,0
  7407 ;; Tracked objects:
  7408 ;;		On entry : 0/0
  7409 ;;		On exit  : 0/0
  7410 ;;		Unchanged: 0/0
  7411 ;; Data sizes:     COMRAM   BANK0   BANK1   BANK2   BANK3   BANK4   BANK5   BANK6   BANK7   BANK8   BANK9  BANK10  BANK1
      +1  BANK12  BANK13  BANK14
  7412 ;;      Params:         6       0       0       0       0       0       0       0       0       0       0       0       
      +0       0       0       0
  7413 ;;      Locals:         4       0       0       0       0       0       0       0       0       0       0       0       
      +0       0       0       0
  7414 ;;      Temps:          0       0       0       0       0       0       0       0       0       0       0       0       
      +0       0       0       0
  7415 ;;      Totals:        10       0       0       0       0       0       0       0       0       0       0       0       
      +0       0       0       0
  7416 ;;Total ram usage:       10 bytes
  7417 ;; Hardware stack levels used:    1
  7418 ;; Hardware stack levels required when called:    5
  7419 ;; This function calls:
  7420 ;;		Nothing
  7421 ;; This function is called by:
  7422 ;;		i1_send_msg
  7423 ;;		i1_recv_msg
  7424 ;; This function uses a non-reentrant model
  7425 ;;
  7426                           
  7427                           	psect	text48
  7428  00177A                     __ptext48:
  7429                           	opt stack 0
  7430  00177A                     i1_memcpy:
  7431                           	opt stack 16
  7432                           
  7433                           ;incstack = 0
  7434  00177A  C004  F00A         	movff	i1memcpy@s1+1,i1memcpy@s+1
  7435  00177E  C003  F009         	movff	i1memcpy@s1,i1memcpy@s
  7436  001782  C002  F008         	movff	i1memcpy@d1+1,i1memcpy@d+1
  7437  001786  C001  F007         	movff	i1memcpy@d1,i1memcpy@d
  7438  00178A  D00E               	goto	i1l3443
  7439  00178C                     i1l3437:
  7440  00178C  C009  FFD9         	movff	i1memcpy@s,fsr2l
  7441  001790  C00A  FFDA         	movff	i1memcpy@s+1,fsr2h
  7442  001794  C007  FFE1         	movff	i1memcpy@d,fsr1l
  7443  001798  C008  FFE2         	movff	i1memcpy@d+1,fsr1h
  7444  00179C  CFDF FFE7          	movff	indf2,indf1
  7445  0017A0  4A09               	infsnz	i1memcpy@s,f,c
  7446  0017A2  2A0A               	incf	i1memcpy@s+1,f,c
  7447  0017A4  4A07               	infsnz	i1memcpy@d,f,c
  7448  0017A6  2A08               	incf	i1memcpy@d+1,f,c
  7449  0017A8                     i1l3443:
  7450  0017A8  0605               	decf	i1memcpy@n,f,c
  7451  0017AA  A0D8               	btfss	status,0,c
  7452  0017AC  0606               	decf	i1memcpy@n+1,f,c
  7453  0017AE  2805               	incf	i1memcpy@n& (0+255),w,c
  7454  0017B0  B4D8               	btfsc	status,2,c
  7455  0017B2  2806               	incf	(i1memcpy@n+1)& (0+255),w,c
  7456  0017B4  B4D8               	btfsc	status,2,c
  7457                           
  7458                           ;	Return value of i1_memcpy is never used
  7459  0017B6  0012               	return	
  7460  0017B8  D7E9               	goto	i1l3437
  7461  0017BA                     __end_ofi1_memcpy:
  7462                           	opt stack 0
  7463                           pclatu	equ	0xFFB
  7464                           pclath	equ	0xFFA
  7465                           tblptru	equ	0xFF8
  7466                           tblptrh	equ	0xFF7
  7467                           tblptrl	equ	0xFF6
  7468                           tablat	equ	0xFF5
  7469                           prodh	equ	0xFF4
  7470                           prodl	equ	0xFF3
  7471                           intcon	equ	0xFF2
  7472                           postinc0	equ	0xFEE
  7473                           fsr0h	equ	0xFEA
  7474                           fsr0l	equ	0xFE9
  7475                           wreg	equ	0xFE8
  7476                           indf1	equ	0xFE7
  7477                           fsr1h	equ	0xFE2
  7478                           fsr1l	equ	0xFE1
  7479                           bsr	equ	0xFE0
  7480                           indf2	equ	0xFDF
  7481                           postinc2	equ	0xFDE
  7482                           postdec2	equ	0xFDD
  7483                           fsr2h	equ	0xFDA
  7484                           fsr2l	equ	0xFD9
  7485                           status	equ	0xFD8
  7486                           
  7487 ;; *************** function _ReadTimer1 *****************
  7488 ;; Defined at:
  7489 ;;		line 15 in file "C:\Program Files (x86)\Microchip\xc8\v1.32\sources\pic18\plib\Timers\t1read.c"
  7490 ;; Parameters:    Size  Location     Type
  7491 ;;		None
  7492 ;; Auto vars:     Size  Location     Type
  7493 ;;  timer           2    2[COMRAM] struct Timers
  7494 ;; Return value:  Size  Location     Type
  7495 ;;                  2    0[COMRAM] unsigned int 
  7496 ;; Registers used:
  7497 ;;		None
  7498 ;; Tracked objects:
  7499 ;;		On entry : 0/0
  7500 ;;		On exit  : 0/0
  7501 ;;		Unchanged: 0/0
  7502 ;; Data sizes:     COMRAM   BANK0   BANK1   BANK2   BANK3   BANK4   BANK5   BANK6   BANK7   BANK8   BANK9  BANK10  BANK1
      +1  BANK12  BANK13  BANK14
  7503 ;;      Params:         2       0       0       0       0       0       0       0       0       0       0       0       
      +0       0       0       0
  7504 ;;      Locals:         2       0       0       0       0       0       0       0       0       0       0       0       
      +0       0       0       0
  7505 ;;      Temps:          0       0       0       0       0       0       0       0       0       0       0       0       
      +0       0       0       0
  7506 ;;      Totals:         4       0       0       0       0       0       0       0       0       0       0       0       
      +0       0       0       0
  7507 ;;Total ram usage:        4 bytes
  7508 ;; Hardware stack levels used:    1
  7509 ;; Hardware stack levels required when called:    5
  7510 ;; This function calls:
  7511 ;;		Nothing
  7512 ;; This function is called by:
  7513 ;;		_timer1_int_handler
  7514 ;; This function uses a non-reentrant model
  7515 ;;
  7516                           
  7517                           	psect	text49
  7518  001BA2                     __ptext49:
  7519                           	opt stack 0
  7520  001BA2                     _ReadTimer1:
  7521                           	opt stack 18
  7522                           
  7523                           ;incstack = 0
  7524  001BA2  CFCE F003          	movff	4046,ReadTimer1@timer	;volatile
  7525  001BA6  CFCF F004          	movff	4047,ReadTimer1@timer+1	;volatile
  7526  001BAA  C003  F001         	movff	ReadTimer1@timer,?_ReadTimer1
  7527  001BAE  C004  F002         	movff	ReadTimer1@timer+1,?_ReadTimer1+1
  7528  001BB2  0012               	return	
  7529  001BB4                     __end_of_ReadTimer1:
  7530                           	opt stack 0
  7531                           pclatu	equ	0xFFB
  7532                           pclath	equ	0xFFA
  7533                           tblptru	equ	0xFF8
  7534                           tblptrh	equ	0xFF7
  7535                           tblptrl	equ	0xFF6
  7536                           tablat	equ	0xFF5
  7537                           prodh	equ	0xFF4
  7538                           prodl	equ	0xFF3
  7539                           intcon	equ	0xFF2
  7540                           postinc0	equ	0xFEE
  7541                           fsr0h	equ	0xFEA
  7542                           fsr0l	equ	0xFE9
  7543                           wreg	equ	0xFE8
  7544                           indf1	equ	0xFE7
  7545                           fsr1h	equ	0xFE2
  7546                           fsr1l	equ	0xFE1
  7547                           bsr	equ	0xFE0
  7548                           indf2	equ	0xFDF
  7549                           postinc2	equ	0xFDE
  7550                           postdec2	equ	0xFDD
  7551                           fsr2h	equ	0xFDA
  7552                           fsr2l	equ	0xFD9
  7553                           status	equ	0xFD8
  7554                           
  7555 ;; *************** function _InterruptHandlerHigh *****************
  7556 ;; Defined at:
  7557 ;;		line 86 in file "../src/interrupts.c"
  7558 ;; Parameters:    Size  Location     Type
  7559 ;;		None
  7560 ;; Auto vars:     Size  Location     Type
  7561 ;;		None
  7562 ;; Return value:  Size  Location     Type
  7563 ;;		None               void
  7564 ;; Registers used:
  7565 ;;		wreg, fsr1l, fsr1h, fsr2l, fsr2h, status,2, status,0, prodl, prodh, cstack
  7566 ;; Tracked objects:
  7567 ;;		On entry : 0/0
  7568 ;;		On exit  : 0/0
  7569 ;;		Unchanged: 0/0
  7570 ;; Data sizes:     COMRAM   BANK0   BANK1   BANK2   BANK3   BANK4   BANK5   BANK6   BANK7   BANK8   BANK9  BANK10  BANK1
      +1  BANK12  BANK13  BANK14
  7571 ;;      Params:         0       0       0       0       0       0       0       0       0       0       0       0       
      +0       0       0       0
  7572 ;;      Locals:         0       0       0       0       0       0       0       0       0       0       0       0       
      +0       0       0       0
  7573 ;;      Temps:          0      14       0       0       0       0       0       0       0       0       0       0       
      +0       0       0       0
  7574 ;;      Totals:         0      14       0       0       0       0       0       0       0       0       0       0       
      +0       0       0       0
  7575 ;;Total ram usage:       14 bytes
  7576 ;; Hardware stack levels used:    1
  7577 ;; Hardware stack levels required when called:    4
  7578 ;; This function calls:
  7579 ;;		_SleepIfOkay
  7580 ;;		_i2c_int_handler
  7581 ;;		_timer0_int_handler
  7582 ;; This function is called by:
  7583 ;;		Interrupt level 2
  7584 ;; This function uses a non-reentrant model
  7585 ;;
  7586                           
  7587                           	psect	intcode
  7588  000008                     __pintcode:
  7589                           	opt stack 0
  7590  000008                     _InterruptHandlerHigh:
  7591                           	opt stack 16
  7592                           
  7593                           ;incstack = 0
  7594  000008  CFFA F084          	movff	pclath,??_InterruptHandlerHigh
  7595  00000C  CFFB F085          	movff	pclatu,??_InterruptHandlerHigh+1
  7596  000010  CFE9 F086          	movff	fsr0l,??_InterruptHandlerHigh+2
  7597  000014  EF68  F009         	goto	int_func
  7598                           pclatu	equ	0xFFB
  7599                           pclath	equ	0xFFA
  7600                           tblptru	equ	0xFF8
  7601                           tblptrh	equ	0xFF7
  7602                           tblptrl	equ	0xFF6
  7603                           tablat	equ	0xFF5
  7604                           prodh	equ	0xFF4
  7605                           prodl	equ	0xFF3
  7606                           intcon	equ	0xFF2
  7607                           postinc0	equ	0xFEE
  7608                           fsr0h	equ	0xFEA
  7609                           fsr0l	equ	0xFE9
  7610                           wreg	equ	0xFE8
  7611                           indf1	equ	0xFE7
  7612                           fsr1h	equ	0xFE2
  7613                           fsr1l	equ	0xFE1
  7614                           bsr	equ	0xFE0
  7615                           indf2	equ	0xFDF
  7616                           postinc2	equ	0xFDE
  7617                           postdec2	equ	0xFDD
  7618                           fsr2h	equ	0xFDA
  7619                           fsr2l	equ	0xFD9
  7620                           status	equ	0xFD8
  7621                           
  7622                           	psect	intcode_body
  7623  0012D0                     __pintcode_body:
  7624                           	opt stack 16
  7625  0012D0                     int_func:
  7626                           	opt stack 16
  7627  0012D0  CFEA F087          	movff	fsr0h,??_InterruptHandlerHigh+3
  7628  0012D4  CFE1 F088          	movff	fsr1l,??_InterruptHandlerHigh+4
  7629  0012D8  CFE2 F089          	movff	fsr1h,??_InterruptHandlerHigh+5
  7630  0012DC  CFD9 F08A          	movff	fsr2l,??_InterruptHandlerHigh+6
  7631  0012E0  CFDA F08B          	movff	fsr2h,??_InterruptHandlerHigh+7
  7632  0012E4  CFF3 F08C          	movff	prodl,??_InterruptHandlerHigh+8
  7633  0012E8  CFF4 F08D          	movff	prodh,??_InterruptHandlerHigh+9
  7634  0012EC  CFF6 F08E          	movff	tblptrl,??_InterruptHandlerHigh+10
  7635  0012F0  CFF7 F08F          	movff	tblptrh,??_InterruptHandlerHigh+11
  7636  0012F4  CFF8 F090          	movff	tblptru,??_InterruptHandlerHigh+12
  7637  0012F8  CFF5 F091          	movff	tablat,??_InterruptHandlerHigh+13
  7638                           
  7639                           ;interrupts.c: 91: if (PIR1bits.SSPIF) {
  7640  0012FC  A69E               	btfss	3998,3,c	;volatile
  7641  0012FE  D003               	goto	i2l4149
  7642                           
  7643                           ;interrupts.c: 93: PIR1bits.SSPIF = 0;
  7644  001300  969E               	bcf	3998,3,c	;volatile
  7645                           
  7646                           ;interrupts.c: 98: i2c_int_handler();
  7647  001302  EC69  F000         	call	_i2c_int_handler	;wreg free
  7648  001306                     i2l4149:
  7649                           
  7650                           ;interrupts.c: 99: }
  7651                           ;interrupts.c: 102: if (INTCONbits.TMR0IF) {
  7652  001306  A4F2               	btfss	intcon,2,c	;volatile
  7653  001308  D003               	goto	i2l4155
  7654                           
  7655                           ;interrupts.c: 103: INTCONbits.TMR0IF = 0;
  7656  00130A  94F2               	bcf	intcon,2,c	;volatile
  7657                           
  7658                           ;interrupts.c: 108: timer0_int_handler();
  7659  00130C  ECE5  F009         	call	_timer0_int_handler	;wreg free
  7660  001310                     i2l4155:
  7661                           
  7662                           ;interrupts.c: 109: }
  7663                           ;interrupts.c: 118: SleepIfOkay();
  7664  001310  EC11  F00B         	call	_SleepIfOkay	;wreg free
  7665  001314  C091  FFF5         	movff	??_InterruptHandlerHigh+13,tablat
  7666  001318  C090  FFF8         	movff	??_InterruptHandlerHigh+12,tblptru
  7667  00131C  C08F  FFF7         	movff	??_InterruptHandlerHigh+11,tblptrh
  7668  001320  C08E  FFF6         	movff	??_InterruptHandlerHigh+10,tblptrl
  7669  001324  C08D  FFF4         	movff	??_InterruptHandlerHigh+9,prodh
  7670  001328  C08C  FFF3         	movff	??_InterruptHandlerHigh+8,prodl
  7671  00132C  C08B  FFDA         	movff	??_InterruptHandlerHigh+7,fsr2h
  7672  001330  C08A  FFD9         	movff	??_InterruptHandlerHigh+6,fsr2l
  7673  001334  C089  FFE2         	movff	??_InterruptHandlerHigh+5,fsr1h
  7674  001338  C088  FFE1         	movff	??_InterruptHandlerHigh+4,fsr1l
  7675  00133C  C087  FFEA         	movff	??_InterruptHandlerHigh+3,fsr0h
  7676  001340  C086  FFE9         	movff	??_InterruptHandlerHigh+2,fsr0l
  7677  001344  C085  FFFB         	movff	??_InterruptHandlerHigh+1,pclatu
  7678  001348  C084  FFFA         	movff	??_InterruptHandlerHigh,pclath
  7679  00134C  0011               	retfie		f
  7680  00134E                     __end_of_InterruptHandlerHigh:
  7681                           	opt stack 0
  7682                           pclatu	equ	0xFFB
  7683                           pclath	equ	0xFFA
  7684                           tblptru	equ	0xFF8
  7685                           tblptrh	equ	0xFF7
  7686                           tblptrl	equ	0xFF6
  7687                           tablat	equ	0xFF5
  7688                           prodh	equ	0xFF4
  7689                           prodl	equ	0xFF3
  7690                           intcon	equ	0xFF2
  7691                           postinc0	equ	0xFEE
  7692                           fsr0h	equ	0xFEA
  7693                           fsr0l	equ	0xFE9
  7694                           wreg	equ	0xFE8
  7695                           indf1	equ	0xFE7
  7696                           fsr1h	equ	0xFE2
  7697                           fsr1l	equ	0xFE1
  7698                           bsr	equ	0xFE0
  7699                           indf2	equ	0xFDF
  7700                           postinc2	equ	0xFDE
  7701                           postdec2	equ	0xFDD
  7702                           fsr2h	equ	0xFDA
  7703                           fsr2l	equ	0xFD9
  7704                           status	equ	0xFD8
  7705                           
  7706 ;; *************** function _timer0_int_handler *****************
  7707 ;; Defined at:
  7708 ;;		line 16 in file "../src/user_interrupts.c"
  7709 ;; Parameters:    Size  Location     Type
  7710 ;;		None
  7711 ;; Auto vars:     Size  Location     Type
  7712 ;;  val             2   33[BANK0 ] unsigned int 
  7713 ;;  msgtype         2   31[BANK0 ] int 
  7714 ;;  length          2   29[BANK0 ] int 
  7715 ;; Return value:  Size  Location     Type
  7716 ;;		None               void
  7717 ;; Registers used:
  7718 ;;		wreg, fsr1l, fsr1h, fsr2l, fsr2h, status,2, status,0, prodl, prodh, cstack
  7719 ;; Tracked objects:
  7720 ;;		On entry : 0/0
  7721 ;;		On exit  : 0/0
  7722 ;;		Unchanged: 0/0
  7723 ;; Data sizes:     COMRAM   BANK0   BANK1   BANK2   BANK3   BANK4   BANK5   BANK6   BANK7   BANK8   BANK9  BANK10  BANK1
      +1  BANK12  BANK13  BANK14
  7724 ;;      Params:         0       0       0       0       0       0       0       0       0       0       0       0       
      +0       0       0       0
  7725 ;;      Locals:         0       6       0       0       0       0       0       0       0       0       0       0       
      +0       0       0       0
  7726 ;;      Temps:          0       0       0       0       0       0       0       0       0       0       0       0       
      +0       0       0       0
  7727 ;;      Totals:         0       6       0       0       0       0       0       0       0       0       0       0       
      +0       0       0       0
  7728 ;;Total ram usage:        6 bytes
  7729 ;; Hardware stack levels used:    1
  7730 ;; Hardware stack levels required when called:    3
  7731 ;; This function calls:
  7732 ;;		_FromMainHigh_recvmsg
  7733 ;;		_ToMainHigh_sendmsg
  7734 ;;		_WriteTimer0
  7735 ;; This function is called by:
  7736 ;;		_InterruptHandlerHigh
  7737 ;; This function uses a non-reentrant model
  7738 ;;
  7739                           
  7740                           	psect	text51
  7741  0013CA                     __ptext51:
  7742                           	opt stack 0
  7743  0013CA                     _timer0_int_handler:
  7744                           	opt stack 16
  7745                           
  7746                           ;user_interrupts.c: 20: unsigned int val;
  7747                           ;user_interrupts.c: 21: int length, msgtype;
  7748                           ;user_interrupts.c: 25: WriteTimer0(0);
  7749                           
  7750                           ;incstack = 0
  7751  0013CA  0E00               	movlw	0
  7752  0013CC  0100               	movlb	0	; () banked
  7753  0013CE  6F61               	movwf	(WriteTimer0@timer0+1)& (0+255),b
  7754  0013D0  0E00               	movlw	0
  7755  0013D2  0100               	movlb	0	; () banked
  7756  0013D4  6F60               	movwf	WriteTimer0@timer0& (0+255),b
  7757  0013D6  ECDA  F00D         	call	_WriteTimer0	;wreg free
  7758                           
  7759                           ;user_interrupts.c: 27: length = FromMainHigh_recvmsg(sizeof(val), (unsigned char *)&msg
      +                          type, (void *) &val);
  7760  0013DA  0100               	movlb	0	; () banked
  7761  0013DC  0E00               	movlw	high timer0_int_handler@msgtype
  7762  0013DE  0100               	movlb	0	; () banked
  7763  0013E0  6F79               	movwf	(FromMainHigh_recvmsg@msgtype+1)& (0+255),b
  7764  0013E2  0100               	movlb	0	; () banked
  7765  0013E4  0E7F               	movlw	low timer0_int_handler@msgtype
  7766  0013E6  0100               	movlb	0	; () banked
  7767  0013E8  6F78               	movwf	FromMainHigh_recvmsg@msgtype& (0+255),b
  7768  0013EA  0100               	movlb	0	; () banked
  7769  0013EC  0E00               	movlw	high timer0_int_handler@val
  7770  0013EE  0100               	movlb	0	; () banked
  7771  0013F0  6F7B               	movwf	(FromMainHigh_recvmsg@data+1)& (0+255),b
  7772  0013F2  0100               	movlb	0	; () banked
  7773  0013F4  0E81               	movlw	low timer0_int_handler@val
  7774  0013F6  0100               	movlb	0	; () banked
  7775  0013F8  6F7A               	movwf	FromMainHigh_recvmsg@data& (0+255),b
  7776  0013FA  0E02               	movlw	2
  7777  0013FC  EC95  F00C         	call	_FromMainHigh_recvmsg
  7778  001400  0100               	movlb	0	; () banked
  7779  001402  6F7D               	movwf	timer0_int_handler@length& (0+255),b
  7780  001404  0100               	movlb	0	; () banked
  7781  001406  6B7E               	clrf	(timer0_int_handler@length+1)& (0+255),b
  7782  001408  0100               	movlb	0	; () banked
  7783  00140A  BF7D               	btfsc	timer0_int_handler@length& (0+255),7,b
  7784  00140C  077E               	decf	(timer0_int_handler@length+1)& (0+255),f,b
  7785                           
  7786                           ; BSR set to: 0
  7787                           ;user_interrupts.c: 28: if (length == sizeof (val)) {
  7788  00140E  0100               	movlb	0	; () banked
  7789  001410  517D               	movf	timer0_int_handler@length& (0+255),w,b
  7790  001412  0A02               	xorlw	2
  7791  001414  117E               	iorwf	(timer0_int_handler@length+1)& (0+255),w,b
  7792  001416  A4D8               	btfss	status,2,c
  7793  001418  0012               	return	
  7794                           
  7795                           ; BSR set to: 0
  7796                           ;user_interrupts.c: 29: ToMainHigh_sendmsg(sizeof (val), 10, (void *) &val);
  7797  00141A  0E0A               	movlw	10
  7798  00141C  0100               	movlb	0	; () banked
  7799  00141E  6F76               	movwf	ToMainHigh_sendmsg@msgtype& (0+255),b
  7800  001420  0100               	movlb	0	; () banked
  7801  001422  0E00               	movlw	high timer0_int_handler@val
  7802  001424  0100               	movlb	0	; () banked
  7803  001426  6F78               	movwf	(ToMainHigh_sendmsg@data+1)& (0+255),b
  7804  001428  0100               	movlb	0	; () banked
  7805  00142A  0E81               	movlw	low timer0_int_handler@val
  7806  00142C  0100               	movlb	0	; () banked
  7807  00142E  6F77               	movwf	ToMainHigh_sendmsg@data& (0+255),b
  7808  001430  0E02               	movlw	2
  7809  001432  EC28  F00D         	call	_ToMainHigh_sendmsg
  7810  001436  0012               	return	
  7811  001438                     __end_of_timer0_int_handler:
  7812                           	opt stack 0
  7813                           pclatu	equ	0xFFB
  7814                           pclath	equ	0xFFA
  7815                           tblptru	equ	0xFF8
  7816                           tblptrh	equ	0xFF7
  7817                           tblptrl	equ	0xFF6
  7818                           tablat	equ	0xFF5
  7819                           prodh	equ	0xFF4
  7820                           prodl	equ	0xFF3
  7821                           intcon	equ	0xFF2
  7822                           postinc0	equ	0xFEE
  7823                           fsr0h	equ	0xFEA
  7824                           fsr0l	equ	0xFE9
  7825                           wreg	equ	0xFE8
  7826                           indf1	equ	0xFE7
  7827                           fsr1h	equ	0xFE2
  7828                           fsr1l	equ	0xFE1
  7829                           bsr	equ	0xFE0
  7830                           indf2	equ	0xFDF
  7831                           postinc2	equ	0xFDE
  7832                           postdec2	equ	0xFDD
  7833                           fsr2h	equ	0xFDA
  7834                           fsr2l	equ	0xFD9
  7835                           status	equ	0xFD8
  7836                           
  7837 ;; *************** function _WriteTimer0 *****************
  7838 ;; Defined at:
  7839 ;;		line 16 in file "C:\Program Files (x86)\Microchip\xc8\v1.32\sources\pic18\plib\Timers\t0write.c"
  7840 ;; Parameters:    Size  Location     Type
  7841 ;;  timer0          2    0[BANK0 ] unsigned int 
  7842 ;; Auto vars:     Size  Location     Type
  7843 ;;  timer           2    2[BANK0 ] struct Timers
  7844 ;; Return value:  Size  Location     Type
  7845 ;;		None               void
  7846 ;; Registers used:
  7847 ;;		None
  7848 ;; Tracked objects:
  7849 ;;		On entry : 0/0
  7850 ;;		On exit  : 0/0
  7851 ;;		Unchanged: 0/0
  7852 ;; Data sizes:     COMRAM   BANK0   BANK1   BANK2   BANK3   BANK4   BANK5   BANK6   BANK7   BANK8   BANK9  BANK10  BANK1
      +1  BANK12  BANK13  BANK14
  7853 ;;      Params:         0       2       0       0       0       0       0       0       0       0       0       0       
      +0       0       0       0
  7854 ;;      Locals:         0       2       0       0       0       0       0       0       0       0       0       0       
      +0       0       0       0
  7855 ;;      Temps:          0       0       0       0       0       0       0       0       0       0       0       0       
      +0       0       0       0
  7856 ;;      Totals:         0       4       0       0       0       0       0       0       0       0       0       0       
      +0       0       0       0
  7857 ;;Total ram usage:        4 bytes
  7858 ;; Hardware stack levels used:    1
  7859 ;; This function calls:
  7860 ;;		Nothing
  7861 ;; This function is called by:
  7862 ;;		_timer0_int_handler
  7863 ;; This function uses a non-reentrant model
  7864 ;;
  7865                           
  7866                           	psect	text52
  7867  001BB4                     __ptext52:
  7868                           	opt stack 0
  7869  001BB4                     _WriteTimer0:
  7870                           	opt stack 18
  7871                           
  7872                           ;incstack = 0
  7873  001BB4  C060  F062         	movff	WriteTimer0@timer0,WriteTimer0@timer
  7874  001BB8  C061  F063         	movff	WriteTimer0@timer0+1,WriteTimer0@timer+1
  7875  001BBC  C063  FFD7         	movff	WriteTimer0@timer+1,4055	;volatile
  7876  001BC0  C062  FFD6         	movff	WriteTimer0@timer,4054	;volatile
  7877  001BC4  0012               	return	
  7878  001BC6                     __end_of_WriteTimer0:
  7879                           	opt stack 0
  7880                           pclatu	equ	0xFFB
  7881                           pclath	equ	0xFFA
  7882                           tblptru	equ	0xFF8
  7883                           tblptrh	equ	0xFF7
  7884                           tblptrl	equ	0xFF6
  7885                           tablat	equ	0xFF5
  7886                           prodh	equ	0xFF4
  7887                           prodl	equ	0xFF3
  7888                           intcon	equ	0xFF2
  7889                           postinc0	equ	0xFEE
  7890                           fsr0h	equ	0xFEA
  7891                           fsr0l	equ	0xFE9
  7892                           wreg	equ	0xFE8
  7893                           indf1	equ	0xFE7
  7894                           fsr1h	equ	0xFE2
  7895                           fsr1l	equ	0xFE1
  7896                           bsr	equ	0xFE0
  7897                           indf2	equ	0xFDF
  7898                           postinc2	equ	0xFDE
  7899                           postdec2	equ	0xFDD
  7900                           fsr2h	equ	0xFDA
  7901                           fsr2l	equ	0xFD9
  7902                           status	equ	0xFD8
  7903                           
  7904 ;; *************** function _i2c_int_handler *****************
  7905 ;; Defined at:
  7906 ;;		line 129 in file "../src/my_i2c.c"
  7907 ;; Parameters:    Size  Location     Type
  7908 ;;		None
  7909 ;; Auto vars:     Size  Location     Type
  7910 ;;  err             1   31[BANK0 ] char 
  7911 ;;  err             1   30[BANK0 ] char 
  7912 ;;  command_byte    1   32[BANK0 ] unsigned char 
  7913 ;;  len             1   35[BANK0 ] char 
  7914 ;;  msg_to_send     1   34[BANK0 ] unsigned char 
  7915 ;;  read_bit        1   33[BANK0 ] unsigned char 
  7916 ;;  i2c_data        1    0        unsigned char 
  7917 ;; Return value:  Size  Location     Type
  7918 ;;		None               void
  7919 ;; Registers used:
  7920 ;;		wreg, fsr1l, fsr1h, fsr2l, fsr2h, status,2, status,0, prodl, prodh, cstack
  7921 ;; Tracked objects:
  7922 ;;		On entry : 0/0
  7923 ;;		On exit  : 0/0
  7924 ;;		Unchanged: 0/0
  7925 ;; Data sizes:     COMRAM   BANK0   BANK1   BANK2   BANK3   BANK4   BANK5   BANK6   BANK7   BANK8   BANK9  BANK10  BANK1
      +1  BANK12  BANK13  BANK14
  7926 ;;      Params:         0       0       0       0       0       0       0       0       0       0       0       0       
      +0       0       0       0
  7927 ;;      Locals:         0       6       0       0       0       0       0       0       0       0       0       0       
      +0       0       0       0
  7928 ;;      Temps:          0       1       0       0       0       0       0       0       0       0       0       0       
      +0       0       0       0
  7929 ;;      Totals:         0       7       0       0       0       0       0       0       0       0       0       0       
      +0       0       0       0
  7930 ;;Total ram usage:        7 bytes
  7931 ;; Hardware stack levels used:    1
  7932 ;; Hardware stack levels required when called:    3
  7933 ;; This function calls:
  7934 ;;		_FromMainHigh_recvmsg
  7935 ;;		_ToMainHigh_sendmsg
  7936 ;; This function is called by:
  7937 ;;		_InterruptHandlerHigh
  7938 ;; This function uses a non-reentrant model
  7939 ;;
  7940                           
  7941                           	psect	text53
  7942  0000D2                     __ptext53:
  7943                           	opt stack 0
  7944  0000D2                     _i2c_int_handler:
  7945                           	opt stack 16
  7946                           
  7947                           ;my_i2c.c: 130: LATDbits.LD7 = 0;
  7948                           
  7949                           ;incstack = 0
  7950  0000D2  9E8C               	bcf	3980,7,c	;volatile
  7951                           
  7952                           ;my_i2c.c: 131: LATDbits.LD7 = 1;
  7953  0000D4  8E8C               	bsf	3980,7,c	;volatile
  7954                           
  7955                           ;my_i2c.c: 133: unsigned char i2c_data;
  7956                           ;my_i2c.c: 138: unsigned char msg_to_send = 40;
  7957  0000D6  0E28               	movlw	40
  7958  0000D8  0100               	movlb	0	; () banked
  7959  0000DA  6F82               	movwf	i2c_int_handler@msg_to_send& (0+255),b
  7960                           
  7961                           ;my_i2c.c: 141: unsigned char read_bit = 1;
  7962  0000DC  0E01               	movlw	1
  7963  0000DE  0100               	movlb	0	; () banked
  7964  0000E0  6F81               	movwf	i2c_int_handler@read_bit& (0+255),b
  7965                           
  7966                           ;my_i2c.c: 145: switch(ic_ptr->status)
  7967  0000E2  D1D3               	goto	i2l3807
  7968  0000E4                     i2l3709:
  7969                           
  7970                           ; BSR set to: 0
  7971                           ;my_i2c.c: 148: {
  7972                           ;my_i2c.c: 149: signed char len = FromMainHigh_recvmsg(14, &msg_to_send, (void*)ic_ptr->
      +                          outbuffer);
  7973  0000E4  0100               	movlb	0	; () banked
  7974  0000E6  0E00               	movlw	high i2c_int_handler@msg_to_send
  7975  0000E8  0100               	movlb	0	; () banked
  7976  0000EA  6F79               	movwf	(FromMainHigh_recvmsg@msgtype+1)& (0+255),b
  7977  0000EC  0100               	movlb	0	; () banked
  7978  0000EE  0E82               	movlw	low i2c_int_handler@msg_to_send
  7979  0000F0  0100               	movlb	0	; () banked
  7980  0000F2  6F78               	movwf	FromMainHigh_recvmsg@msgtype& (0+255),b
  7981  0000F4  0E10               	movlw	16
  7982  0000F6  0100               	movlb	0	; () banked
  7983  0000F8  25CC               	addwf	_ic_ptr& (0+255),w,b
  7984  0000FA  0100               	movlb	0	; () banked
  7985  0000FC  6F7A               	movwf	FromMainHigh_recvmsg@data& (0+255),b
  7986  0000FE  0E00               	movlw	0
  7987  000100  0100               	movlb	0	; () banked
  7988  000102  21CD               	addwfc	(_ic_ptr+1)& (0+255),w,b
  7989  000104  0100               	movlb	0	; () banked
  7990  000106  6F7B               	movwf	(FromMainHigh_recvmsg@data+1)& (0+255),b
  7991  000108  0E0E               	movlw	14
  7992  00010A  EC95  F00C         	call	_FromMainHigh_recvmsg
  7993  00010E  0100               	movlb	0	; () banked
  7994  000110  6F83               	movwf	i2c_int_handler@len& (0+255),b
  7995                           
  7996                           ; BSR set to: 0
  7997                           ;my_i2c.c: 150: if( len == -4 )
  7998  000112  0100               	movlb	0	; () banked
  7999  000114  5183               	movf	i2c_int_handler@len& (0+255),w,b
  8000  000116  0AFC               	xorlw	252
  8001  000118  B4D8               	btfsc	status,2,c
  8002  00011A  D1D9               	goto	i2l325
  8003                           
  8004                           ; BSR set to: 0
  8005                           ;my_i2c.c: 158: else if( len == -3 )
  8006                           
  8007                           ; BSR set to: 0
  8008                           
  8009                           ; BSR set to: 0
  8010                           ;my_i2c.c: 151: {
  8011                           ;my_i2c.c: 157: }
  8012  00011C  0100               	movlb	0	; () banked
  8013  00011E  5183               	movf	i2c_int_handler@len& (0+255),w,b
  8014  000120  0AFD               	xorlw	253
  8015  000122  B4D8               	btfsc	status,2,c
  8016  000124  D1D4               	goto	i2l325
  8017                           
  8018                           ; BSR set to: 0
  8019                           ;my_i2c.c: 162: else
  8020                           ;my_i2c.c: 163: {
  8021                           ;my_i2c.c: 164: ic_ptr->outbufind = 0;
  8022                           
  8023                           ; BSR set to: 0
  8024                           
  8025                           ; BSR set to: 0
  8026                           ;my_i2c.c: 159: {
  8027                           ;my_i2c.c: 161: }
  8028  000126  0100               	movlb	0	; () banked
  8029  000128  EE20 F01E          	lfsr	2,30
  8030  00012C  0100               	movlb	0	; () banked
  8031  00012E  51CC               	movf	_ic_ptr& (0+255),w,b
  8032  000130  26D9               	addwf	fsr2l,f,c
  8033  000132  0100               	movlb	0	; () banked
  8034  000134  51CD               	movf	(_ic_ptr+1)& (0+255),w,b
  8035  000136  22DA               	addwfc	fsr2h,f,c
  8036  000138  0E00               	movlw	0
  8037  00013A  6EDF               	movwf	indf2,c
  8038                           
  8039                           ;my_i2c.c: 165: ic_ptr->bufind = 0;
  8040  00013C  0100               	movlb	0	; () banked
  8041  00013E  EE20 F00F          	lfsr	2,15
  8042  000142  0100               	movlb	0	; () banked
  8043  000144  51CC               	movf	_ic_ptr& (0+255),w,b
  8044  000146  26D9               	addwf	fsr2l,f,c
  8045  000148  0100               	movlb	0	; () banked
  8046  00014A  51CD               	movf	(_ic_ptr+1)& (0+255),w,b
  8047  00014C  22DA               	addwfc	fsr2h,f,c
  8048  00014E  0E00               	movlw	0
  8049  000150  6EDF               	movwf	indf2,c
  8050                           
  8051                           ;my_i2c.c: 166: ic_ptr->outbuflen = len;
  8052  000152  0100               	movlb	0	; () banked
  8053  000154  EE20 F01F          	lfsr	2,31
  8054  000158  0100               	movlb	0	; () banked
  8055  00015A  51CC               	movf	_ic_ptr& (0+255),w,b
  8056  00015C  26D9               	addwf	fsr2l,f,c
  8057  00015E  0100               	movlb	0	; () banked
  8058  000160  51CD               	movf	(_ic_ptr+1)& (0+255),w,b
  8059  000162  22DA               	addwfc	fsr2h,f,c
  8060  000164  0100               	movlb	0	; () banked
  8061  000166  C083  FFDF         	movff	i2c_int_handler@len,indf2
  8062                           
  8063                           ; BSR set to: 0
  8064                           ;my_i2c.c: 167: SSP1CON2bits.SEN = 1;
  8065  00016A  80C5               	bsf	4037,0,c	;volatile
  8066                           
  8067                           ;my_i2c.c: 168: ic_ptr->status = 0x6;
  8068  00016C  0100               	movlb	0	; () banked
  8069  00016E  EE20 F021          	lfsr	2,33
  8070  000172  0100               	movlb	0	; () banked
  8071  000174  51CC               	movf	_ic_ptr& (0+255),w,b
  8072  000176  26D9               	addwf	fsr2l,f,c
  8073  000178  0100               	movlb	0	; () banked
  8074  00017A  51CD               	movf	(_ic_ptr+1)& (0+255),w,b
  8075  00017C  22DA               	addwfc	fsr2h,f,c
  8076  00017E  0E06               	movlw	6
  8077  000180  D003               	goto	L8
  8078  000182                     i2l326:
  8079                           
  8080                           ; BSR set to: 0
  8081                           ;my_i2c.c: 175: {
  8082                           ;my_i2c.c: 176: if( SSP1STATbits.S == 0 )
  8083  000182  B6C7               	btfsc	4039,3,c	;volatile
  8084  000184  D003               	goto	i2l327
  8085  000186  D0EA               	goto	L15
  8086  000188                     L8:
  8087  000188  6EDF               	movwf	indf2,c
  8088                           
  8089                           ;my_i2c.c: 180: break;
  8090  00018A  D1A1               	goto	i2l325
  8091  00018C                     i2l327:
  8092                           
  8093                           ; BSR set to: 0
  8094                           ;my_i2c.c: 182: else if( SSP1STATbits.BF == 1 )
  8095  00018C  A0C7               	btfss	4039,0,c	;volatile
  8096  00018E  D023               	goto	i2l3739
  8097  000190  D0E5               	goto	L15
  8098  000192                     i2l3729:
  8099                           
  8100                           ; BSR set to: 0
  8101                           ;my_i2c.c: 193: {
  8102                           ;my_i2c.c: 194: ic_ptr->slave_addr = 0x9C;
  8103  000192  0100               	movlb	0	; () banked
  8104  000194  EE20 F025          	lfsr	2,37
  8105  000198  0100               	movlb	0	; () banked
  8106  00019A  51CC               	movf	_ic_ptr& (0+255),w,b
  8107  00019C  26D9               	addwf	fsr2l,f,c
  8108  00019E  0100               	movlb	0	; () banked
  8109  0001A0  51CD               	movf	(_ic_ptr+1)& (0+255),w,b
  8110  0001A2  22DA               	addwfc	fsr2h,f,c
  8111  0001A4  0E9C               	movlw	156
  8112  0001A6  D015               	goto	L11
  8113  0001A8                     i2l3731:
  8114                           
  8115                           ; BSR set to: 0
  8116                           ;my_i2c.c: 198: {
  8117                           ;my_i2c.c: 199: ic_ptr->slave_addr = 0x9E;
  8118  0001A8  0100               	movlb	0	; () banked
  8119  0001AA  EE20 F025          	lfsr	2,37
  8120  0001AE  0100               	movlb	0	; () banked
  8121  0001B0  51CC               	movf	_ic_ptr& (0+255),w,b
  8122  0001B2  26D9               	addwf	fsr2l,f,c
  8123  0001B4  0100               	movlb	0	; () banked
  8124  0001B6  51CD               	movf	(_ic_ptr+1)& (0+255),w,b
  8125  0001B8  22DA               	addwfc	fsr2h,f,c
  8126  0001BA  0E9E               	movlw	158
  8127  0001BC  D00A               	goto	L11
  8128  0001BE                     i2l3735:
  8129                           
  8130                           ; BSR set to: 0
  8131                           ;my_i2c.c: 208: {
  8132                           ;my_i2c.c: 209: ic_ptr->slave_addr = 0x00;
  8133  0001BE  0100               	movlb	0	; () banked
  8134  0001C0  EE20 F025          	lfsr	2,37
  8135  0001C4  0100               	movlb	0	; () banked
  8136  0001C6  51CC               	movf	_ic_ptr& (0+255),w,b
  8137  0001C8  26D9               	addwf	fsr2l,f,c
  8138  0001CA  0100               	movlb	0	; () banked
  8139  0001CC  51CD               	movf	(_ic_ptr+1)& (0+255),w,b
  8140  0001CE  22DA               	addwfc	fsr2h,f,c
  8141  0001D0  0E00               	movlw	0
  8142  0001D2                     L11:
  8143  0001D2  6EDF               	movwf	indf2,c
  8144                           
  8145                           ;my_i2c.c: 210: break;
  8146  0001D4  D014               	goto	i2l3741
  8147  0001D6                     i2l3739:
  8148                           
  8149                           ; BSR set to: 0
  8150  0001D6  0100               	movlb	0	; () banked
  8151  0001D8  EE20 F010          	lfsr	2,16
  8152  0001DC  0100               	movlb	0	; () banked
  8153  0001DE  51CC               	movf	_ic_ptr& (0+255),w,b
  8154  0001E0  26D9               	addwf	fsr2l,f,c
  8155  0001E2  0100               	movlb	0	; () banked
  8156  0001E4  51CD               	movf	(_ic_ptr+1)& (0+255),w,b
  8157  0001E6  22DA               	addwfc	fsr2h,f,c
  8158  0001E8  50DF               	movf	indf2,w,c
  8159                           
  8160                           ; Switch size 1, requested type "space"
  8161                           ; Number of cases is 3, Range of values is 1 to 6
  8162                           ; switch strategies available:
  8163                           ; Name         Instructions Cycles
  8164                           ; simple_byte           10     6 (average)
  8165                           ;	Chosen strategy is simple_byte
  8166  0001EA  0A01               	xorlw	1	; case 1
  8167  0001EC  B4D8               	btfsc	status,2,c
  8168  0001EE  D7D1               	goto	i2l3729
  8169  0001F0  0A05               	xorlw	5	; case 4
  8170  0001F2  B4D8               	btfsc	status,2,c
  8171  0001F4  D7D9               	goto	i2l3731
  8172  0001F6  0A02               	xorlw	2	; case 6
  8173  0001F8  B4D8               	btfsc	status,2,c
  8174  0001FA  D7CB               	goto	i2l3729
  8175  0001FC  D7E0               	goto	i2l3735
  8176  0001FE                     i2l3741:
  8177                           
  8178                           ; BSR set to: 0
  8179                           ;my_i2c.c: 214: SSP1BUF = ic_ptr->slave_addr;
  8180  0001FE  0100               	movlb	0	; () banked
  8181  000200  EE20 F025          	lfsr	2,37
  8182  000204  0100               	movlb	0	; () banked
  8183  000206  51CC               	movf	_ic_ptr& (0+255),w,b
  8184  000208  26D9               	addwf	fsr2l,f,c
  8185  00020A  0100               	movlb	0	; () banked
  8186  00020C  51CD               	movf	(_ic_ptr+1)& (0+255),w,b
  8187  00020E  22DA               	addwfc	fsr2h,f,c
  8188  000210  50DF               	movf	indf2,w,c
  8189  000212  6EC9               	movwf	4041,c	;volatile
  8190                           
  8191                           ;my_i2c.c: 216: ic_ptr->status = 0xa;
  8192  000214  0100               	movlb	0	; () banked
  8193  000216  EE20 F021          	lfsr	2,33
  8194  00021A  0100               	movlb	0	; () banked
  8195  00021C  51CC               	movf	_ic_ptr& (0+255),w,b
  8196  00021E  26D9               	addwf	fsr2l,f,c
  8197  000220  0100               	movlb	0	; () banked
  8198  000222  51CD               	movf	(_ic_ptr+1)& (0+255),w,b
  8199  000224  22DA               	addwfc	fsr2h,f,c
  8200  000226  0E0A               	movlw	10
  8201  000228  6EDF               	movwf	indf2,c
  8202                           
  8203                           ;my_i2c.c: 217: ic_ptr->outbufind = 0;
  8204  00022A  0100               	movlb	0	; () banked
  8205  00022C  EE20 F01E          	lfsr	2,30
  8206  000230  D063               	goto	L14
  8207  000232                     i2l336:
  8208                           
  8209                           ; BSR set to: 0
  8210                           ;my_i2c.c: 222: {
  8211                           ;my_i2c.c: 223: if( SSP1STATbits.BF == 1 )
  8212  000232  B0C7               	btfsc	4039,0,c	;volatile
  8213  000234  D14C               	goto	i2l325
  8214                           
  8215                           ; BSR set to: 0
  8216                           ;my_i2c.c: 226: }
  8217                           ;my_i2c.c: 228: SSP1BUF = ic_ptr->outbuffer[ic_ptr->outbufind];
  8218                           
  8219                           ; BSR set to: 0
  8220                           
  8221                           ; BSR set to: 0
  8222                           ;my_i2c.c: 224: {
  8223                           ;my_i2c.c: 225: break;
  8224  000236  0100               	movlb	0	; () banked
  8225  000238  EE20 F01E          	lfsr	2,30
  8226  00023C  0100               	movlb	0	; () banked
  8227  00023E  51CC               	movf	_ic_ptr& (0+255),w,b
  8228  000240  26D9               	addwf	fsr2l,f,c
  8229  000242  0100               	movlb	0	; () banked
  8230  000244  51CD               	movf	(_ic_ptr+1)& (0+255),w,b
  8231  000246  22DA               	addwfc	fsr2h,f,c
  8232  000248  50DF               	movf	indf2,w,c
  8233  00024A  0100               	movlb	0	; () banked
  8234  00024C  6F7D               	movwf	??_i2c_int_handler& (0+255),b
  8235  00024E  0100               	movlb	0	; () banked
  8236  000250  517D               	movf	??_i2c_int_handler& (0+255),w,b
  8237  000252  0D01               	mullw	1
  8238  000254  0E10               	movlw	16
  8239  000256  26F3               	addwf	prodl,f,c
  8240  000258  0E00               	movlw	0
  8241  00025A  22F4               	addwfc	prodh,f,c
  8242  00025C  50F3               	movf	prodl,w,c
  8243  00025E  0100               	movlb	0	; () banked
  8244  000260  25CC               	addwf	_ic_ptr& (0+255),w,b
  8245  000262  6ED9               	movwf	fsr2l,c
  8246  000264  50F4               	movf	prodh,w,c
  8247  000266  0100               	movlb	0	; () banked
  8248  000268  21CD               	addwfc	(_ic_ptr+1)& (0+255),w,b
  8249  00026A  6EDA               	movwf	fsr2h,c
  8250  00026C  50DF               	movf	indf2,w,c
  8251  00026E  6EC9               	movwf	4041,c	;volatile
  8252                           
  8253                           ; BSR set to: 0
  8254                           ;my_i2c.c: 229: ic_ptr->outbufind++;
  8255  000270  0100               	movlb	0	; () banked
  8256  000272  EE20 F01E          	lfsr	2,30
  8257  000276  0100               	movlb	0	; () banked
  8258  000278  51CC               	movf	_ic_ptr& (0+255),w,b
  8259  00027A  26D9               	addwf	fsr2l,f,c
  8260  00027C  0100               	movlb	0	; () banked
  8261  00027E  51CD               	movf	(_ic_ptr+1)& (0+255),w,b
  8262  000280  22DA               	addwfc	fsr2h,f,c
  8263  000282  2ADF               	incf	indf2,f,c
  8264                           
  8265                           ; BSR set to: 0
  8266                           ;my_i2c.c: 231: if( ic_ptr->outbufind >= 14 )
  8267  000284  0100               	movlb	0	; () banked
  8268  000286  EE20 F01E          	lfsr	2,30
  8269  00028A  0100               	movlb	0	; () banked
  8270  00028C  51CC               	movf	_ic_ptr& (0+255),w,b
  8271  00028E  26D9               	addwf	fsr2l,f,c
  8272  000290  0100               	movlb	0	; () banked
  8273  000292  51CD               	movf	(_ic_ptr+1)& (0+255),w,b
  8274  000294  22DA               	addwfc	fsr2h,f,c
  8275  000296  0E0D               	movlw	13
  8276  000298  64DF               	cpfsgt	indf2,c
  8277  00029A  D119               	goto	i2l325
  8278                           
  8279                           ; BSR set to: 0
  8280                           ;my_i2c.c: 232: {
  8281                           ;my_i2c.c: 233: unsigned char command_byte = ic_ptr->outbuffer[0];
  8282  00029C  0100               	movlb	0	; () banked
  8283  00029E  EE20 F010          	lfsr	2,16
  8284  0002A2  0100               	movlb	0	; () banked
  8285  0002A4  51CC               	movf	_ic_ptr& (0+255),w,b
  8286  0002A6  26D9               	addwf	fsr2l,f,c
  8287  0002A8  0100               	movlb	0	; () banked
  8288  0002AA  51CD               	movf	(_ic_ptr+1)& (0+255),w,b
  8289  0002AC  22DA               	addwfc	fsr2h,f,c
  8290  0002AE  50DF               	movf	indf2,w,c
  8291  0002B0  0100               	movlb	0	; () banked
  8292  0002B2  6F80               	movwf	i2c_int_handler@command_byte& (0+255),b
  8293                           
  8294                           ;my_i2c.c: 235: switch(command_byte)
  8295  0002B4  D006               	goto	i2l3761
  8296  0002B6                     i2l3755:
  8297                           
  8298                           ; BSR set to: 0
  8299                           ;my_i2c.c: 243: {
  8300                           ;my_i2c.c: 244: read_bit = 1;
  8301  0002B6  0E01               	movlw	1
  8302  0002B8  D001               	goto	L12
  8303  0002BA                     i2l3757:
  8304                           
  8305                           ; BSR set to: 0
  8306                           ;my_i2c.c: 248: {
  8307                           ;my_i2c.c: 249: read_bit = 0;
  8308  0002BA  0E00               	movlw	0
  8309  0002BC                     L12:
  8310  0002BC  0100               	movlb	0	; () banked
  8311  0002BE  6F81               	movwf	i2c_int_handler@read_bit& (0+255),b
  8312                           
  8313                           ;my_i2c.c: 250: break;
  8314  0002C0  D009               	goto	i2l3763
  8315  0002C2                     i2l3761:
  8316                           
  8317                           ; BSR set to: 0
  8318  0002C2  0100               	movlb	0	; () banked
  8319  0002C4  5180               	movf	i2c_int_handler@command_byte& (0+255),w,b
  8320                           
  8321                           ; Switch size 1, requested type "space"
  8322                           ; Number of cases is 2, Range of values is 4 to 6
  8323                           ; switch strategies available:
  8324                           ; Name         Instructions Cycles
  8325                           ; simple_byte            7     4 (average)
  8326                           ;	Chosen strategy is simple_byte
  8327  0002C6  0A04               	xorlw	4	; case 4
  8328  0002C8  B4D8               	btfsc	status,2,c
  8329  0002CA  D7F5               	goto	i2l3755
  8330  0002CC  0A02               	xorlw	2	; case 6
  8331  0002CE  B4D8               	btfsc	status,2,c
  8332  0002D0  D7F2               	goto	i2l3755
  8333  0002D2  D7F3               	goto	i2l3757
  8334  0002D4                     i2l3763:
  8335                           
  8336                           ; BSR set to: 0
  8337                           ;my_i2c.c: 254: if( read_bit )
  8338  0002D4  0100               	movlb	0	; () banked
  8339  0002D6  5181               	movf	i2c_int_handler@read_bit& (0+255),w,b
  8340  0002D8  B4D8               	btfsc	status,2,c
  8341  0002DA  D016               	goto	i2l3767
  8342                           
  8343                           ; BSR set to: 0
  8344                           ;my_i2c.c: 255: {
  8345                           ;my_i2c.c: 256: ic_ptr->status = 0xc;
  8346  0002DC  0100               	movlb	0	; () banked
  8347  0002DE  EE20 F021          	lfsr	2,33
  8348  0002E2  0100               	movlb	0	; () banked
  8349  0002E4  51CC               	movf	_ic_ptr& (0+255),w,b
  8350  0002E6  26D9               	addwf	fsr2l,f,c
  8351  0002E8  0100               	movlb	0	; () banked
  8352  0002EA  51CD               	movf	(_ic_ptr+1)& (0+255),w,b
  8353  0002EC  22DA               	addwfc	fsr2h,f,c
  8354  0002EE  0E0C               	movlw	12
  8355  0002F0  6EDF               	movwf	indf2,c
  8356                           
  8357                           ;my_i2c.c: 257: ic_ptr->bufind = 0;
  8358  0002F2  0100               	movlb	0	; () banked
  8359  0002F4  EE20 F00F          	lfsr	2,15
  8360  0002F8                     L14:
  8361  0002F8  0100               	movlb	0	; () banked
  8362  0002FA  51CC               	movf	_ic_ptr& (0+255),w,b
  8363  0002FC  26D9               	addwf	fsr2l,f,c
  8364  0002FE  0100               	movlb	0	; () banked
  8365  000300  51CD               	movf	(_ic_ptr+1)& (0+255),w,b
  8366  000302  22DA               	addwfc	fsr2h,f,c
  8367  000304  0E00               	movlw	0
  8368  000306  D740               	goto	L8
  8369  000308                     i2l3767:
  8370                           
  8371                           ; BSR set to: 0
  8372                           ;my_i2c.c: 259: else
  8373                           ;my_i2c.c: 260: {
  8374                           ;my_i2c.c: 261: ic_ptr->status = 0xb;
  8375  000308  0100               	movlb	0	; () banked
  8376  00030A  EE20 F021          	lfsr	2,33
  8377  00030E  0100               	movlb	0	; () banked
  8378  000310  51CC               	movf	_ic_ptr& (0+255),w,b
  8379  000312  26D9               	addwf	fsr2l,f,c
  8380  000314  0100               	movlb	0	; () banked
  8381  000316  51CD               	movf	(_ic_ptr+1)& (0+255),w,b
  8382  000318  22DA               	addwfc	fsr2h,f,c
  8383  00031A  0E0B               	movlw	11
  8384  00031C  D735               	goto	L8
  8385  00031E                     i2l346:
  8386                           
  8387                           ; BSR set to: 0
  8388                           ;my_i2c.c: 267: {
  8389                           ;my_i2c.c: 269: SSP1CON2bits.RSEN = 1;
  8390  00031E  82C5               	bsf	4037,1,c	;volatile
  8391                           
  8392                           ; BSR set to: 0
  8393                           ;my_i2c.c: 271: ic_ptr->status = 0xd;
  8394  000320  0100               	movlb	0	; () banked
  8395  000322  EE20 F021          	lfsr	2,33
  8396  000326  0100               	movlb	0	; () banked
  8397  000328  51CC               	movf	_ic_ptr& (0+255),w,b
  8398  00032A  26D9               	addwf	fsr2l,f,c
  8399  00032C  0100               	movlb	0	; () banked
  8400  00032E  51CD               	movf	(_ic_ptr+1)& (0+255),w,b
  8401  000330  22DA               	addwfc	fsr2h,f,c
  8402  000332  0E0D               	movlw	13
  8403  000334  D729               	goto	L8
  8404  000336                     i2l347:
  8405                           
  8406                           ; BSR set to: 0
  8407                           ;my_i2c.c: 275: {
  8408                           ;my_i2c.c: 276: if( SSP1STATbits.S == 0 )
  8409  000336  B6C7               	btfsc	4039,3,c	;volatile
  8410                           
  8411                           ; BSR set to: 0
  8412                           ;my_i2c.c: 282: else if( SSP1STATbits.BF == 1 )
  8413                           
  8414                           ; BSR set to: 0
  8415                           ;my_i2c.c: 281: }
  8416                           
  8417                           ;my_i2c.c: 280: break;
  8418                           
  8419                           ; BSR set to: 0
  8420                           ;my_i2c.c: 277: {
  8421                           ;my_i2c.c: 278: ic_ptr->status = 0x5;
  8422  000338  B0C7               	btfsc	4039,0,c	;volatile
  8423  00033A  D010               	goto	L15
  8424                           
  8425                           ; BSR set to: 0
  8426                           ;my_i2c.c: 287: }
  8427                           ;my_i2c.c: 289: SSP1BUF = ic_ptr->slave_addr | 1;
  8428                           
  8429                           ; BSR set to: 0
  8430                           
  8431                           ; BSR set to: 0
  8432                           
  8433                           ;my_i2c.c: 286: break;
  8434                           
  8435                           ; BSR set to: 0
  8436                           ;my_i2c.c: 283: {
  8437                           ;my_i2c.c: 284: ic_ptr->status = 0x5;
  8438  00033C  0100               	movlb	0	; () banked
  8439  00033E  EE20 F025          	lfsr	2,37
  8440  000342  0100               	movlb	0	; () banked
  8441  000344  51CC               	movf	_ic_ptr& (0+255),w,b
  8442  000346  26D9               	addwf	fsr2l,f,c
  8443  000348  0100               	movlb	0	; () banked
  8444  00034A  51CD               	movf	(_ic_ptr+1)& (0+255),w,b
  8445  00034C  22DA               	addwfc	fsr2h,f,c
  8446  00034E  50DF               	movf	indf2,w,c
  8447  000350  0901               	iorlw	1
  8448  000352  6EC9               	movwf	4041,c	;volatile
  8449  000354  D082               	goto	L16
  8450  000356                     i2l351:
  8451                           
  8452                           ; BSR set to: 0
  8453                           ;my_i2c.c: 295: {
  8454                           ;my_i2c.c: 296: if( SSP1CON2bits.ACKSTAT )
  8455  000356  ACC5               	btfss	4037,6,c	;volatile
  8456  000358  D00C               	goto	i2l352
  8457  00035A  D08A               	goto	i2l359
  8458  00035C                     L15:
  8459                           
  8460                           ;my_i2c.c: 300: ic_ptr->status = 0x5;
  8461  00035C  0100               	movlb	0	; () banked
  8462  00035E  EE20 F021          	lfsr	2,33
  8463  000362  0100               	movlb	0	; () banked
  8464  000364  51CC               	movf	_ic_ptr& (0+255),w,b
  8465  000366  26D9               	addwf	fsr2l,f,c
  8466  000368  0100               	movlb	0	; () banked
  8467  00036A  51CD               	movf	(_ic_ptr+1)& (0+255),w,b
  8468  00036C  22DA               	addwfc	fsr2h,f,c
  8469  00036E  0E05               	movlw	5
  8470  000370  D70B               	goto	L8
  8471  000372                     i2l352:
  8472                           
  8473                           ; BSR set to: 0
  8474                           ;my_i2c.c: 302: }
  8475                           ;my_i2c.c: 304: SSP1CON2bits.RCEN = 1;
  8476  000372  86C5               	bsf	4037,3,c	;volatile
  8477                           
  8478                           ; BSR set to: 0
  8479                           ;my_i2c.c: 306: ic_ptr->outbufind = 0;
  8480  000374  0100               	movlb	0	; () banked
  8481  000376  EE20 F01E          	lfsr	2,30
  8482  00037A  0100               	movlb	0	; () banked
  8483  00037C  51CC               	movf	_ic_ptr& (0+255),w,b
  8484  00037E  26D9               	addwf	fsr2l,f,c
  8485  000380  0100               	movlb	0	; () banked
  8486  000382  51CD               	movf	(_ic_ptr+1)& (0+255),w,b
  8487  000384  22DA               	addwfc	fsr2h,f,c
  8488  000386  0E00               	movlw	0
  8489  000388  6EDF               	movwf	indf2,c
  8490                           
  8491                           ;my_i2c.c: 307: ic_ptr->status = 0x8;
  8492  00038A  0100               	movlb	0	; () banked
  8493  00038C  EE20 F021          	lfsr	2,33
  8494  000390  0100               	movlb	0	; () banked
  8495  000392  51CC               	movf	_ic_ptr& (0+255),w,b
  8496  000394  26D9               	addwf	fsr2l,f,c
  8497  000396  0100               	movlb	0	; () banked
  8498  000398  51CD               	movf	(_ic_ptr+1)& (0+255),w,b
  8499  00039A  22DA               	addwfc	fsr2h,f,c
  8500  00039C  0E08               	movlw	8
  8501  00039E  D6F4               	goto	L8
  8502  0003A0                     i2l353:
  8503                           
  8504                           ; BSR set to: 0
  8505                           ;my_i2c.c: 311: {
  8506                           ;my_i2c.c: 312: if( SSP1STATbits.BF == 0 )
  8507  0003A0  A0C7               	btfss	4039,0,c	;volatile
  8508  0003A2  D095               	goto	i2l325
  8509                           
  8510                           ; BSR set to: 0
  8511                           ;my_i2c.c: 315: }
  8512                           ;my_i2c.c: 317: ic_ptr->buffer[ic_ptr->bufind] = SSP1BUF;
  8513                           
  8514                           ; BSR set to: 0
  8515                           
  8516                           ; BSR set to: 0
  8517                           ;my_i2c.c: 313: {
  8518                           ;my_i2c.c: 314: break;
  8519  0003A4  0100               	movlb	0	; () banked
  8520  0003A6  EE20 F00F          	lfsr	2,15
  8521  0003AA  0100               	movlb	0	; () banked
  8522  0003AC  51CC               	movf	_ic_ptr& (0+255),w,b
  8523  0003AE  26D9               	addwf	fsr2l,f,c
  8524  0003B0  0100               	movlb	0	; () banked
  8525  0003B2  51CD               	movf	(_ic_ptr+1)& (0+255),w,b
  8526  0003B4  22DA               	addwfc	fsr2h,f,c
  8527  0003B6  50DF               	movf	indf2,w,c
  8528  0003B8  0100               	movlb	0	; () banked
  8529  0003BA  6F7D               	movwf	??_i2c_int_handler& (0+255),b
  8530  0003BC  0100               	movlb	0	; () banked
  8531  0003BE  517D               	movf	??_i2c_int_handler& (0+255),w,b
  8532  0003C0  0D01               	mullw	1
  8533  0003C2  50F3               	movf	prodl,w,c
  8534  0003C4  0100               	movlb	0	; () banked
  8535  0003C6  25CC               	addwf	_ic_ptr& (0+255),w,b
  8536  0003C8  6ED9               	movwf	fsr2l,c
  8537  0003CA  50F4               	movf	prodh,w,c
  8538  0003CC  0100               	movlb	0	; () banked
  8539  0003CE  21CD               	addwfc	(_ic_ptr+1)& (0+255),w,b
  8540  0003D0  6EDA               	movwf	fsr2h,c
  8541  0003D2  CFC9 FFDF          	movff	4041,indf2	;volatile
  8542                           
  8543                           ; BSR set to: 0
  8544                           ;my_i2c.c: 318: ic_ptr->bufind++;
  8545  0003D6  0100               	movlb	0	; () banked
  8546  0003D8  EE20 F00F          	lfsr	2,15
  8547  0003DC  0100               	movlb	0	; () banked
  8548  0003DE  51CC               	movf	_ic_ptr& (0+255),w,b
  8549  0003E0  26D9               	addwf	fsr2l,f,c
  8550  0003E2  0100               	movlb	0	; () banked
  8551  0003E4  51CD               	movf	(_ic_ptr+1)& (0+255),w,b
  8552  0003E6  22DA               	addwfc	fsr2h,f,c
  8553  0003E8  2ADF               	incf	indf2,f,c
  8554                           
  8555                           ; BSR set to: 0
  8556                           ;my_i2c.c: 321: if( ic_ptr->bufind >= 14 )
  8557  0003EA  0100               	movlb	0	; () banked
  8558  0003EC  EE20 F00F          	lfsr	2,15
  8559  0003F0  0100               	movlb	0	; () banked
  8560  0003F2  51CC               	movf	_ic_ptr& (0+255),w,b
  8561  0003F4  26D9               	addwf	fsr2l,f,c
  8562  0003F6  0100               	movlb	0	; () banked
  8563  0003F8  51CD               	movf	(_ic_ptr+1)& (0+255),w,b
  8564  0003FA  22DA               	addwfc	fsr2h,f,c
  8565  0003FC  0E0D               	movlw	13
  8566  0003FE  64DF               	cpfsgt	indf2,c
  8567  000400  D00F               	goto	i2l355
  8568                           
  8569                           ; BSR set to: 0
  8570                           ;my_i2c.c: 322: {
  8571                           ;my_i2c.c: 323: signed char err = ToMainHigh_sendmsg(14, 40 , ic_ptr->buffer);
  8572  000402  0E28               	movlw	40
  8573  000404  0100               	movlb	0	; () banked
  8574  000406  6F76               	movwf	ToMainHigh_sendmsg@msgtype& (0+255),b
  8575  000408  0100               	movlb	0	; () banked
  8576  00040A  C0CD  F078         	movff	_ic_ptr+1,ToMainHigh_sendmsg@data+1
  8577  00040E  0100               	movlb	0	; () banked
  8578  000410  C0CC  F077         	movff	_ic_ptr,ToMainHigh_sendmsg@data
  8579  000414  0E0E               	movlw	14
  8580  000416  EC28  F00D         	call	_ToMainHigh_sendmsg
  8581  00041A  0100               	movlb	0	; () banked
  8582  00041C  6F7E               	movwf	i2c_int_handler@err& (0+255),b
  8583  00041E  D010               	goto	L13
  8584  000420                     i2l355:
  8585                           
  8586                           ; BSR set to: 0
  8587                           ;my_i2c.c: 326: else if(SSP1STATbits.P)
  8588  000420  A8C7               	btfss	4039,4,c	;volatile
  8589  000422  D01A               	goto	i2l357
  8590                           
  8591                           ; BSR set to: 0
  8592                           ;my_i2c.c: 327: {
  8593                           ;my_i2c.c: 328: signed char err = ToMainHigh_sendmsg(14, 40 , ic_ptr->buffer);
  8594  000424  0E28               	movlw	40
  8595  000426  0100               	movlb	0	; () banked
  8596  000428  6F76               	movwf	ToMainHigh_sendmsg@msgtype& (0+255),b
  8597  00042A  0100               	movlb	0	; () banked
  8598  00042C  C0CD  F078         	movff	_ic_ptr+1,ToMainHigh_sendmsg@data+1
  8599  000430  0100               	movlb	0	; () banked
  8600  000432  C0CC  F077         	movff	_ic_ptr,ToMainHigh_sendmsg@data
  8601  000436  0E0E               	movlw	14
  8602  000438  EC28  F00D         	call	_ToMainHigh_sendmsg
  8603  00043C  0100               	movlb	0	; () banked
  8604  00043E  6F7F               	movwf	i2c_int_handler@err_2152& (0+255),b
  8605  000440                     L13:
  8606                           
  8607                           ; BSR set to: 0
  8608                           ;my_i2c.c: 329: ic_ptr->status = 0xb;
  8609  000440  0100               	movlb	0	; () banked
  8610  000442  EE20 F021          	lfsr	2,33
  8611  000446  0100               	movlb	0	; () banked
  8612  000448  51CC               	movf	_ic_ptr& (0+255),w,b
  8613  00044A  26D9               	addwf	fsr2l,f,c
  8614  00044C  0100               	movlb	0	; () banked
  8615  00044E  51CD               	movf	(_ic_ptr+1)& (0+255),w,b
  8616  000450  22DA               	addwfc	fsr2h,f,c
  8617  000452  0E0B               	movlw	11
  8618  000454  6EDF               	movwf	indf2,c
  8619                           
  8620                           ;my_i2c.c: 330: }
  8621  000456  D00C               	goto	i2l359
  8622  000458                     i2l357:
  8623                           
  8624                           ; BSR set to: 0
  8625                           ;my_i2c.c: 331: else
  8626                           ;my_i2c.c: 332: {
  8627                           ;my_i2c.c: 333: SSP1CON2bits.ACKEN = 1;
  8628  000458  88C5               	bsf	4037,4,c	;volatile
  8629  00045A                     L16:
  8630                           
  8631                           ; BSR set to: 0
  8632                           ;my_i2c.c: 334: ic_ptr->status = 0xe;
  8633  00045A  0100               	movlb	0	; () banked
  8634  00045C  EE20 F021          	lfsr	2,33
  8635  000460  0100               	movlb	0	; () banked
  8636  000462  51CC               	movf	_ic_ptr& (0+255),w,b
  8637  000464  26D9               	addwf	fsr2l,f,c
  8638  000466  0100               	movlb	0	; () banked
  8639  000468  51CD               	movf	(_ic_ptr+1)& (0+255),w,b
  8640  00046A  22DA               	addwfc	fsr2h,f,c
  8641  00046C  0E0E               	movlw	14
  8642  00046E  D68C               	goto	L8
  8643  000470                     i2l359:
  8644                           
  8645                           ; BSR set to: 0
  8646                           ;my_i2c.c: 340: {
  8647                           ;my_i2c.c: 341: SSP1CON2bits.PEN = 1;
  8648  000470  84C5               	bsf	4037,2,c	;volatile
  8649                           
  8650                           ; BSR set to: 0
  8651                           ;my_i2c.c: 342: ic_ptr->outbufind = 0;
  8652  000472  0100               	movlb	0	; () banked
  8653  000474  EE20 F01E          	lfsr	2,30
  8654  000478  0100               	movlb	0	; () banked
  8655  00047A  51CC               	movf	_ic_ptr& (0+255),w,b
  8656  00047C  26D9               	addwf	fsr2l,f,c
  8657  00047E  0100               	movlb	0	; () banked
  8658  000480  51CD               	movf	(_ic_ptr+1)& (0+255),w,b
  8659  000482  22DA               	addwfc	fsr2h,f,c
  8660  000484  0E00               	movlw	0
  8661  000486  6EDF               	movwf	indf2,c
  8662  000488  D769               	goto	L15
  8663  00048A                     i2l3807:
  8664                           
  8665                           ; BSR set to: 0
  8666  00048A  0100               	movlb	0	; () banked
  8667  00048C  EE20 F021          	lfsr	2,33
  8668  000490  0100               	movlb	0	; () banked
  8669  000492  51CC               	movf	_ic_ptr& (0+255),w,b
  8670  000494  26D9               	addwf	fsr2l,f,c
  8671  000496  0100               	movlb	0	; () banked
  8672  000498  51CD               	movf	(_ic_ptr+1)& (0+255),w,b
  8673  00049A  22DA               	addwfc	fsr2h,f,c
  8674  00049C  50DF               	movf	indf2,w,c
  8675                           
  8676                           ; Switch size 1, requested type "space"
  8677                           ; Number of cases is 8, Range of values is 5 to 14
  8678                           ; switch strategies available:
  8679                           ; Name         Instructions Cycles
  8680                           ; simple_byte           25    13 (average)
  8681                           ;	Chosen strategy is simple_byte
  8682  00049E  0A05               	xorlw	5	; case 5
  8683  0004A0  B4D8               	btfsc	status,2,c
  8684  0004A2  D620               	goto	i2l3709
  8685  0004A4  0A03               	xorlw	3	; case 6
  8686  0004A6  B4D8               	btfsc	status,2,c
  8687  0004A8  D66C               	goto	i2l326
  8688  0004AA  0A0E               	xorlw	14	; case 8
  8689  0004AC  B4D8               	btfsc	status,2,c
  8690  0004AE  D778               	goto	i2l353
  8691  0004B0  0A02               	xorlw	2	; case 10
  8692  0004B2  B4D8               	btfsc	status,2,c
  8693  0004B4  D6BE               	goto	i2l336
  8694  0004B6  0A01               	xorlw	1	; case 11
  8695  0004B8  B4D8               	btfsc	status,2,c
  8696  0004BA  D7DA               	goto	i2l359
  8697  0004BC  0A07               	xorlw	7	; case 12
  8698  0004BE  B4D8               	btfsc	status,2,c
  8699  0004C0  D72E               	goto	i2l346
  8700  0004C2  0A01               	xorlw	1	; case 13
  8701  0004C4  B4D8               	btfsc	status,2,c
  8702  0004C6  D737               	goto	i2l347
  8703  0004C8  0A03               	xorlw	3	; case 14
  8704  0004CA  B4D8               	btfsc	status,2,c
  8705  0004CC  D744               	goto	i2l351
  8706  0004CE                     i2l325:
  8707                           
  8708                           ; BSR set to: 0
  8709                           ;my_i2c.c: 349: LATDbits.LD7 = 1;
  8710  0004CE  8E8C               	bsf	3980,7,c	;volatile
  8711                           
  8712                           ;my_i2c.c: 350: LATDbits.LD7 = 0;
  8713  0004D0  9E8C               	bcf	3980,7,c	;volatile
  8714                           
  8715                           ; BSR set to: 0
  8716  0004D2  0012               	return	
  8717  0004D4                     __end_of_i2c_int_handler:
  8718                           	opt stack 0
  8719                           pclatu	equ	0xFFB
  8720                           pclath	equ	0xFFA
  8721                           tblptru	equ	0xFF8
  8722                           tblptrh	equ	0xFF7
  8723                           tblptrl	equ	0xFF6
  8724                           tablat	equ	0xFF5
  8725                           prodh	equ	0xFF4
  8726                           prodl	equ	0xFF3
  8727                           intcon	equ	0xFF2
  8728                           postinc0	equ	0xFEE
  8729                           fsr0h	equ	0xFEA
  8730                           fsr0l	equ	0xFE9
  8731                           wreg	equ	0xFE8
  8732                           indf1	equ	0xFE7
  8733                           fsr1h	equ	0xFE2
  8734                           fsr1l	equ	0xFE1
  8735                           bsr	equ	0xFE0
  8736                           indf2	equ	0xFDF
  8737                           postinc2	equ	0xFDE
  8738                           postdec2	equ	0xFDD
  8739                           fsr2h	equ	0xFDA
  8740                           fsr2l	equ	0xFD9
  8741                           status	equ	0xFD8
  8742                           
  8743 ;; *************** function _ToMainHigh_sendmsg *****************
  8744 ;; Defined at:
  8745 ;;		line 127 in file "../src/messages.c"
  8746 ;; Parameters:    Size  Location     Type
  8747 ;;  length          1    wreg     unsigned char 
  8748 ;;  msgtype         1   22[BANK0 ] unsigned char 
  8749 ;;  data            2   23[BANK0 ] PTR void 
  8750 ;;		 -> NULL(0), timer0_int_handler@val(2), main@ic(38), 
  8751 ;; Auto vars:     Size  Location     Type
  8752 ;;  length          1   25[BANK0 ] unsigned char 
  8753 ;; Return value:  Size  Location     Type
  8754 ;;                  1    wreg      char 
  8755 ;; Registers used:
  8756 ;;		wreg, fsr1l, fsr1h, fsr2l, fsr2h, status,2, status,0, prodl, prodh, cstack
  8757 ;; Tracked objects:
  8758 ;;		On entry : 0/0
  8759 ;;		On exit  : 0/0
  8760 ;;		Unchanged: 0/0
  8761 ;; Data sizes:     COMRAM   BANK0   BANK1   BANK2   BANK3   BANK4   BANK5   BANK6   BANK7   BANK8   BANK9  BANK10  BANK1
      +1  BANK12  BANK13  BANK14
  8762 ;;      Params:         0       3       0       0       0       0       0       0       0       0       0       0       
      +0       0       0       0
  8763 ;;      Locals:         0       1       0       0       0       0       0       0       0       0       0       0       
      +0       0       0       0
  8764 ;;      Temps:          0       0       0       0       0       0       0       0       0       0       0       0       
      +0       0       0       0
  8765 ;;      Totals:         0       4       0       0       0       0       0       0       0       0       0       0       
      +0       0       0       0
  8766 ;;Total ram usage:        4 bytes
  8767 ;; Hardware stack levels used:    1
  8768 ;; Hardware stack levels required when called:    2
  8769 ;; This function calls:
  8770 ;;		i2_send_msg
  8771 ;; This function is called by:
  8772 ;;		_i2c_int_handler
  8773 ;;		_timer0_int_handler
  8774 ;; This function uses a non-reentrant model
  8775 ;;
  8776                           
  8777                           	psect	text54
  8778  001A50                     __ptext54:
  8779                           	opt stack 0
  8780  001A50                     _ToMainHigh_sendmsg:
  8781                           	opt stack 16
  8782                           
  8783                           ; BSR set to: 0
  8784                           ;incstack = 0
  8785                           ;ToMainHigh_sendmsg@length stored from wreg
  8786  001A50  0100               	movlb	0	; () banked
  8787  001A52  6F79               	movwf	ToMainHigh_sendmsg@length& (0+255),b
  8788                           
  8789                           ; BSR set to: 0
  8790                           ;messages.c: 133: return (send_msg(&ToMainHigh_MQ, length, msgtype, data));
  8791  001A54  0102               	movlb	2	; () banked
  8792  001A56  0E02               	movlw	high _ToMainHigh_MQ
  8793  001A58  0100               	movlb	0	; () banked
  8794  001A5A  6F6B               	movwf	(i2send_msg@qptr+1)& (0+255),b
  8795  001A5C  0102               	movlb	2	; () banked
  8796  001A5E  0E00               	movlw	low _ToMainHigh_MQ
  8797  001A60  0100               	movlb	0	; () banked
  8798  001A62  6F6A               	movwf	i2send_msg@qptr& (0+255),b
  8799  001A64  C079  F06C         	movff	ToMainHigh_sendmsg@length,i2send_msg@length
  8800  001A68  C076  F06D         	movff	ToMainHigh_sendmsg@msgtype,i2send_msg@msgtype
  8801  001A6C  0100               	movlb	0	; () banked
  8802  001A6E  C078  F06F         	movff	ToMainHigh_sendmsg@data+1,i2send_msg@data+1
  8803  001A72  0100               	movlb	0	; () banked
  8804  001A74  C077  F06E         	movff	ToMainHigh_sendmsg@data,i2send_msg@data
  8805  001A78  EC71  F007         	call	i2_send_msg	;wreg free
  8806  001A7C  0012               	return	
  8807  001A7E                     __end_of_ToMainHigh_sendmsg:
  8808                           	opt stack 0
  8809                           pclatu	equ	0xFFB
  8810                           pclath	equ	0xFFA
  8811                           tblptru	equ	0xFF8
  8812                           tblptrh	equ	0xFF7
  8813                           tblptrl	equ	0xFF6
  8814                           tablat	equ	0xFF5
  8815                           prodh	equ	0xFF4
  8816                           prodl	equ	0xFF3
  8817                           intcon	equ	0xFF2
  8818                           postinc0	equ	0xFEE
  8819                           fsr0h	equ	0xFEA
  8820                           fsr0l	equ	0xFE9
  8821                           wreg	equ	0xFE8
  8822                           indf1	equ	0xFE7
  8823                           fsr1h	equ	0xFE2
  8824                           fsr1l	equ	0xFE1
  8825                           bsr	equ	0xFE0
  8826                           indf2	equ	0xFDF
  8827                           postinc2	equ	0xFDE
  8828                           postdec2	equ	0xFDD
  8829                           fsr2h	equ	0xFDA
  8830                           fsr2l	equ	0xFD9
  8831                           status	equ	0xFD8
  8832                           
  8833 ;; *************** function i2_send_msg *****************
  8834 ;; Defined at:
  8835 ;;		line 25 in file "../src/messages.c"
  8836 ;; Parameters:    Size  Location     Type
  8837 ;;  qptr            2   10[BANK0 ] PTR struct __msg_queue
  8838 ;;		 -> FromMainHigh_MQ(138), FromMainLow_MQ(138), ToMainHigh_MQ(138), ToMainLow_MQ(138), 
  8839 ;;  length          1   12[BANK0 ] unsigned char 
  8840 ;;  msgtype         1   13[BANK0 ] unsigned char 
  8841 ;;  data            2   14[BANK0 ] PTR void 
  8842 ;;		 -> NULL(0), timer0_int_handler@val(2), timer1_lthread@i2c_msg(14), uart_receive_interrupt_handler@message_count(1),
      + 
  8843 ;;		 -> uart_receive_interrupt_handler@bad_checksum_message(3), uart_receive_interrupt_handler@gooey_uart_center(14), ua
      +rt_receive_interrupt_handler@bad_counter_id(2), uart_receive_interrupt_handler@bad_end_id(1), 
  8844 ;;		 -> uart_receive_interrupt_handler@bad_start_id(1), main@uart_response(14), main@sensor_data(14), main@ic(38), 
  8845 ;;		 -> main@t1thread_data(17), 
  8846 ;; Auto vars:     Size  Location     Type
  8847 ;;  send_msg        2   20[BANK0 ] PTR struct __msg
  8848 ;;		 -> FromMainLow_MQ.queue(136), FromMainHigh_MQ.queue(136), ToMainHigh_MQ.queue(136), ToMainLow_MQ.queue(136), 
  8849 ;;		 -> FromMainHigh_MQ(138), FromMainLow_MQ(138), ToMainHigh_MQ(138), ToMainLow_MQ(138), 
  8850 ;;  send_msg        2   17[BANK0 ] unsigned int 
  8851 ;;  send_msg        1   19[BANK0 ] unsigned char 
  8852 ;; Return value:  Size  Location     Type
  8853 ;;                  1    wreg      char 
  8854 ;; Registers used:
  8855 ;;		wreg, fsr1l, fsr1h, fsr2l, fsr2h, status,2, status,0, prodl, prodh, cstack
  8856 ;; Tracked objects:
  8857 ;;		On entry : 0/0
  8858 ;;		On exit  : 0/0
  8859 ;;		Unchanged: 0/0
  8860 ;; Data sizes:     COMRAM   BANK0   BANK1   BANK2   BANK3   BANK4   BANK5   BANK6   BANK7   BANK8   BANK9  BANK10  BANK1
      +1  BANK12  BANK13  BANK14
  8861 ;;      Params:         0       6       0       0       0       0       0       0       0       0       0       0       
      +0       0       0       0
  8862 ;;      Locals:         0       5       0       0       0       0       0       0       0       0       0       0       
      +0       0       0       0
  8863 ;;      Temps:          0       1       0       0       0       0       0       0       0       0       0       0       
      +0       0       0       0
  8864 ;;      Totals:         0      12       0       0       0       0       0       0       0       0       0       0       
      +0       0       0       0
  8865 ;;Total ram usage:       12 bytes
  8866 ;; Hardware stack levels used:    1
  8867 ;; Hardware stack levels required when called:    1
  8868 ;; This function calls:
  8869 ;;		i2_memcpy
  8870 ;; This function is called by:
  8871 ;;		_ToMainHigh_sendmsg
  8872 ;; This function uses a non-reentrant model
  8873 ;;
  8874                           
  8875                           	psect	text55
  8876  000EE2                     __ptext55:
  8877                           	opt stack 0
  8878  000EE2                     i2_send_msg:
  8879                           	opt stack 16
  8880                           
  8881                           ;messages.c: 26: unsigned char slot;
  8882                           ;messages.c: 28: msg *qmsg;
  8883                           ;messages.c: 29: size_t tlength = length;
  8884                           
  8885                           ;incstack = 0
  8886  000EE2  0100               	movlb	0	; () banked
  8887  000EE4  C06C  F071         	movff	i2send_msg@length,i2send_msg@tlength
  8888  000EE8  0100               	movlb	0	; () banked
  8889  000EEA  6B72               	clrf	(i2send_msg@tlength+1)& (0+255),b
  8890                           
  8891                           ; BSR set to: 0
  8892                           ;messages.c: 39: slot = qptr->cur_write_ind;
  8893  000EEC  0100               	movlb	0	; () banked
  8894  000EEE  EE20 F088          	lfsr	2,136
  8895  000EF2  0100               	movlb	0	; () banked
  8896  000EF4  516A               	movf	i2send_msg@qptr& (0+255),w,b
  8897  000EF6  26D9               	addwf	fsr2l,f,c
  8898  000EF8  0100               	movlb	0	; () banked
  8899  000EFA  516B               	movf	(i2send_msg@qptr+1)& (0+255),w,b
  8900  000EFC  22DA               	addwfc	fsr2h,f,c
  8901  000EFE  50DF               	movf	indf2,w,c
  8902  000F00  0100               	movlb	0	; () banked
  8903  000F02  6F73               	movwf	i2send_msg@slot& (0+255),b
  8904                           
  8905                           ; BSR set to: 0
  8906                           ;messages.c: 40: qmsg = &(qptr->queue[slot]);
  8907  000F04  0100               	movlb	0	; () banked
  8908  000F06  5173               	movf	i2send_msg@slot& (0+255),w,b
  8909  000F08  0D11               	mullw	17
  8910  000F0A  50F3               	movf	prodl,w,c
  8911  000F0C  0100               	movlb	0	; () banked
  8912  000F0E  256A               	addwf	i2send_msg@qptr& (0+255),w,b
  8913  000F10  0100               	movlb	0	; () banked
  8914  000F12  6F74               	movwf	i2send_msg@qmsg& (0+255),b
  8915  000F14  50F4               	movf	prodh,w,c
  8916  000F16  0100               	movlb	0	; () banked
  8917  000F18  216B               	addwfc	(i2send_msg@qptr+1)& (0+255),w,b
  8918  000F1A  0100               	movlb	0	; () banked
  8919  000F1C  6F75               	movwf	(i2send_msg@qmsg+1)& (0+255),b
  8920                           
  8921                           ; BSR set to: 0
  8922                           ;messages.c: 42: if (qmsg->full != 0) {
  8923  000F1E  C074  FFD9         	movff	i2send_msg@qmsg,fsr2l
  8924  000F22  C075  FFDA         	movff	i2send_msg@qmsg+1,fsr2h
  8925  000F26  50DF               	movf	indf2,w,c
  8926  000F28  B4D8               	btfsc	status,2,c
  8927  000F2A  D002               	goto	i2l3515
  8928                           
  8929                           ; BSR set to: 0
  8930                           ;messages.c: 43: return (-1);
  8931  000F2C  0EFF               	movlw	255
  8932  000F2E  0012               	return	
  8933  000F30                     i2l3515:
  8934                           
  8935                           ; BSR set to: 0
  8936                           ;messages.c: 44: }
  8937                           ;messages.c: 47: qmsg->length = length;
  8938  000F30  0100               	movlb	0	; () banked
  8939  000F32  EE20 F001          	lfsr	2,1
  8940  000F36  0100               	movlb	0	; () banked
  8941  000F38  5174               	movf	i2send_msg@qmsg& (0+255),w,b
  8942  000F3A  26D9               	addwf	fsr2l,f,c
  8943  000F3C  0100               	movlb	0	; () banked
  8944  000F3E  5175               	movf	(i2send_msg@qmsg+1)& (0+255),w,b
  8945  000F40  22DA               	addwfc	fsr2h,f,c
  8946  000F42  0100               	movlb	0	; () banked
  8947  000F44  C06C  FFDF         	movff	i2send_msg@length,indf2
  8948                           
  8949                           ;messages.c: 48: qmsg->msgtype = msgtype;
  8950  000F48  0100               	movlb	0	; () banked
  8951  000F4A  EE20 F002          	lfsr	2,2
  8952  000F4E  0100               	movlb	0	; () banked
  8953  000F50  5174               	movf	i2send_msg@qmsg& (0+255),w,b
  8954  000F52  26D9               	addwf	fsr2l,f,c
  8955  000F54  0100               	movlb	0	; () banked
  8956  000F56  5175               	movf	(i2send_msg@qmsg+1)& (0+255),w,b
  8957  000F58  22DA               	addwfc	fsr2h,f,c
  8958  000F5A  0100               	movlb	0	; () banked
  8959  000F5C  C06D  FFDF         	movff	i2send_msg@msgtype,indf2
  8960                           
  8961                           ; BSR set to: 0
  8962                           ;messages.c: 56: memcpy(qmsg->data, data, tlength);
  8963  000F60  0E03               	movlw	3
  8964  000F62  0100               	movlb	0	; () banked
  8965  000F64  2574               	addwf	i2send_msg@qmsg& (0+255),w,b
  8966  000F66  0100               	movlb	0	; () banked
  8967  000F68  6F60               	movwf	i2memcpy@d1& (0+255),b
  8968  000F6A  0E00               	movlw	0
  8969  000F6C  0100               	movlb	0	; () banked
  8970  000F6E  2175               	addwfc	(i2send_msg@qmsg+1)& (0+255),w,b
  8971  000F70  0100               	movlb	0	; () banked
  8972  000F72  6F61               	movwf	(i2memcpy@d1+1)& (0+255),b
  8973  000F74  0100               	movlb	0	; () banked
  8974  000F76  C06F  F063         	movff	i2send_msg@data+1,i2memcpy@s1+1
  8975  000F7A  0100               	movlb	0	; () banked
  8976  000F7C  C06E  F062         	movff	i2send_msg@data,i2memcpy@s1
  8977  000F80  C071  F064         	movff	i2send_msg@tlength,i2memcpy@n
  8978  000F84  C072  F065         	movff	i2send_msg@tlength+1,i2memcpy@n+1
  8979  000F88  EC95  F00B         	call	i2_memcpy	;wreg free
  8980                           
  8981                           ;messages.c: 57: qptr->cur_write_ind = (qptr->cur_write_ind + 1) % 8;
  8982  000F8C  0100               	movlb	0	; () banked
  8983  000F8E  EE20 F088          	lfsr	2,136
  8984  000F92  0100               	movlb	0	; () banked
  8985  000F94  516A               	movf	i2send_msg@qptr& (0+255),w,b
  8986  000F96  26D9               	addwf	fsr2l,f,c
  8987  000F98  0100               	movlb	0	; () banked
  8988  000F9A  516B               	movf	(i2send_msg@qptr+1)& (0+255),w,b
  8989  000F9C  22DA               	addwfc	fsr2h,f,c
  8990  000F9E  0100               	movlb	0	; () banked
  8991  000FA0  EE10 F088          	lfsr	1,136
  8992  000FA4  0100               	movlb	0	; () banked
  8993  000FA6  516A               	movf	i2send_msg@qptr& (0+255),w,b
  8994  000FA8  26E1               	addwf	fsr1l,f,c
  8995  000FAA  0100               	movlb	0	; () banked
  8996  000FAC  516B               	movf	(i2send_msg@qptr+1)& (0+255),w,b
  8997  000FAE  22E2               	addwfc	fsr1h,f,c
  8998  000FB0  50E7               	movf	indf1,w,c
  8999  000FB2  0100               	movlb	0	; () banked
  9000  000FB4  6F70               	movwf	??i2_send_msg& (0+255),b
  9001  000FB6  0100               	movlb	0	; () banked
  9002  000FB8  2970               	incf	??i2_send_msg& (0+255),w,b
  9003  000FBA  0B07               	andlw	7
  9004  000FBC  6EDF               	movwf	indf2,c
  9005                           
  9006                           ; BSR set to: 0
  9007                           ;messages.c: 60: qmsg->full = 1;
  9008  000FBE  C074  FFD9         	movff	i2send_msg@qmsg,fsr2l
  9009  000FC2  C075  FFDA         	movff	i2send_msg@qmsg+1,fsr2h
  9010  000FC6  0E01               	movlw	1
  9011  000FC8  6EDF               	movwf	indf2,c
  9012                           
  9013                           ; BSR set to: 0
  9014                           ;messages.c: 61: return (1);
  9015  000FCA  0E01               	movlw	1
  9016  000FCC  0012               	return	
  9017  000FCE                     __end_ofi2_send_msg:
  9018                           	opt stack 0
  9019                           pclatu	equ	0xFFB
  9020                           pclath	equ	0xFFA
  9021                           tblptru	equ	0xFF8
  9022                           tblptrh	equ	0xFF7
  9023                           tblptrl	equ	0xFF6
  9024                           tablat	equ	0xFF5
  9025                           prodh	equ	0xFF4
  9026                           prodl	equ	0xFF3
  9027                           intcon	equ	0xFF2
  9028                           postinc0	equ	0xFEE
  9029                           fsr0h	equ	0xFEA
  9030                           fsr0l	equ	0xFE9
  9031                           wreg	equ	0xFE8
  9032                           indf1	equ	0xFE7
  9033                           fsr1h	equ	0xFE2
  9034                           fsr1l	equ	0xFE1
  9035                           bsr	equ	0xFE0
  9036                           indf2	equ	0xFDF
  9037                           postinc2	equ	0xFDE
  9038                           postdec2	equ	0xFDD
  9039                           fsr2h	equ	0xFDA
  9040                           fsr2l	equ	0xFD9
  9041                           status	equ	0xFD8
  9042                           
  9043 ;; *************** function _FromMainHigh_recvmsg *****************
  9044 ;; Defined at:
  9045 ;;		line 184 in file "../src/messages.c"
  9046 ;; Parameters:    Size  Location     Type
  9047 ;;  maxlength       1    wreg     unsigned char 
  9048 ;;  msgtype         2   24[BANK0 ] PTR unsigned char 
  9049 ;;		 -> timer0_int_handler@msgtype(2), i2c_int_handler@msg_to_send(1), 
  9050 ;;  data            2   26[BANK0 ] PTR void 
  9051 ;;		 -> NULL(0), timer0_int_handler@val(2), main@ic(38), 
  9052 ;; Auto vars:     Size  Location     Type
  9053 ;;  maxlength       1   28[BANK0 ] unsigned char 
  9054 ;; Return value:  Size  Location     Type
  9055 ;;                  1    wreg      char 
  9056 ;; Registers used:
  9057 ;;		wreg, fsr1l, fsr1h, fsr2l, fsr2h, status,2, status,0, prodl, prodh, cstack
  9058 ;; Tracked objects:
  9059 ;;		On entry : 0/0
  9060 ;;		On exit  : 0/0
  9061 ;;		Unchanged: 0/0
  9062 ;; Data sizes:     COMRAM   BANK0   BANK1   BANK2   BANK3   BANK4   BANK5   BANK6   BANK7   BANK8   BANK9  BANK10  BANK1
      +1  BANK12  BANK13  BANK14
  9063 ;;      Params:         0       4       0       0       0       0       0       0       0       0       0       0       
      +0       0       0       0
  9064 ;;      Locals:         0       1       0       0       0       0       0       0       0       0       0       0       
      +0       0       0       0
  9065 ;;      Temps:          0       0       0       0       0       0       0       0       0       0       0       0       
      +0       0       0       0
  9066 ;;      Totals:         0       5       0       0       0       0       0       0       0       0       0       0       
      +0       0       0       0
  9067 ;;Total ram usage:        5 bytes
  9068 ;; Hardware stack levels used:    1
  9069 ;; Hardware stack levels required when called:    2
  9070 ;; This function calls:
  9071 ;;		i2_recv_msg
  9072 ;; This function is called by:
  9073 ;;		_i2c_int_handler
  9074 ;;		_timer0_int_handler
  9075 ;; This function uses a non-reentrant model
  9076 ;;
  9077                           
  9078                           	psect	text56
  9079  00192A                     __ptext56:
  9080                           	opt stack 0
  9081  00192A                     _FromMainHigh_recvmsg:
  9082                           	opt stack 16
  9083                           
  9084                           ; BSR set to: 0
  9085                           ;incstack = 0
  9086                           ;FromMainHigh_recvmsg@maxlength stored from wreg
  9087  00192A  0100               	movlb	0	; () banked
  9088  00192C  6F7C               	movwf	FromMainHigh_recvmsg@maxlength& (0+255),b
  9089                           
  9090                           ; BSR set to: 0
  9091                           ;messages.c: 190: return (recv_msg(&FromMainHigh_MQ, maxlength, msgtype, data));
  9092  00192E  0104               	movlb	4	; () banked
  9093  001930  0E04               	movlw	high _FromMainHigh_MQ
  9094  001932  0100               	movlb	0	; () banked
  9095  001934  6F6B               	movwf	(i2recv_msg@qptr+1)& (0+255),b
  9096  001936  0104               	movlb	4	; () banked
  9097  001938  0E00               	movlw	low _FromMainHigh_MQ
  9098  00193A  0100               	movlb	0	; () banked
  9099  00193C  6F6A               	movwf	i2recv_msg@qptr& (0+255),b
  9100  00193E  C07C  F06C         	movff	FromMainHigh_recvmsg@maxlength,i2recv_msg@maxlength
  9101  001942  0100               	movlb	0	; () banked
  9102  001944  C079  F06E         	movff	FromMainHigh_recvmsg@msgtype+1,i2recv_msg@msgtype+1
  9103  001948  0100               	movlb	0	; () banked
  9104  00194A  C078  F06D         	movff	FromMainHigh_recvmsg@msgtype,i2recv_msg@msgtype
  9105  00194E  0100               	movlb	0	; () banked
  9106  001950  C07B  F070         	movff	FromMainHigh_recvmsg@data+1,i2recv_msg@data+1
  9107  001954  0100               	movlb	0	; () banked
  9108  001956  C07A  F06F         	movff	FromMainHigh_recvmsg@data,i2recv_msg@data
  9109  00195A  EC6B  F006         	call	i2_recv_msg	;wreg free
  9110  00195E  0012               	return	
  9111  001960                     __end_of_FromMainHigh_recvmsg:
  9112                           	opt stack 0
  9113                           pclatu	equ	0xFFB
  9114                           pclath	equ	0xFFA
  9115                           tblptru	equ	0xFF8
  9116                           tblptrh	equ	0xFF7
  9117                           tblptrl	equ	0xFF6
  9118                           tablat	equ	0xFF5
  9119                           prodh	equ	0xFF4
  9120                           prodl	equ	0xFF3
  9121                           intcon	equ	0xFF2
  9122                           postinc0	equ	0xFEE
  9123                           fsr0h	equ	0xFEA
  9124                           fsr0l	equ	0xFE9
  9125                           wreg	equ	0xFE8
  9126                           indf1	equ	0xFE7
  9127                           fsr1h	equ	0xFE2
  9128                           fsr1l	equ	0xFE1
  9129                           bsr	equ	0xFE0
  9130                           indf2	equ	0xFDF
  9131                           postinc2	equ	0xFDE
  9132                           postdec2	equ	0xFDD
  9133                           fsr2h	equ	0xFDA
  9134                           fsr2l	equ	0xFD9
  9135                           status	equ	0xFD8
  9136                           
  9137 ;; *************** function i2_recv_msg *****************
  9138 ;; Defined at:
  9139 ;;		line 64 in file "../src/messages.c"
  9140 ;; Parameters:    Size  Location     Type
  9141 ;;  qptr            2   10[BANK0 ] PTR struct __msg_queue
  9142 ;;		 -> FromMainHigh_MQ(138), FromMainLow_MQ(138), ToMainHigh_MQ(138), ToMainLow_MQ(138), 
  9143 ;;  maxlength       1   12[BANK0 ] unsigned char 
  9144 ;;  msgtype         2   13[BANK0 ] PTR unsigned char 
  9145 ;;		 -> timer0_int_handler@msgtype(2), uart_transmit_interrupt_handler@msgtype(1), i2c_int_handler@msg_to_send(1), main@
      +msgtype(1), 
  9146 ;;  data            2   15[BANK0 ] PTR void 
  9147 ;;		 -> NULL(0), timer0_int_handler@val(2), uart_transmit_interrupt_handler@data(14), main@msgbuffer(15), 
  9148 ;;		 -> main@ic(38), 
  9149 ;; Auto vars:     Size  Location     Type
  9150 ;;  recv_msg        2   22[BANK0 ] PTR struct __msg
  9151 ;;		 -> FromMainLow_MQ.queue(136), FromMainHigh_MQ.queue(136), ToMainHigh_MQ.queue(136), ToMainLow_MQ.queue(136), 
  9152 ;;		 -> FromMainHigh_MQ(138), FromMainLow_MQ(138), ToMainHigh_MQ(138), ToMainLow_MQ(138), 
  9153 ;;  recv_msg        2   20[BANK0 ] unsigned int 
  9154 ;;  recv_msg        1   19[BANK0 ] unsigned char 
  9155 ;; Return value:  Size  Location     Type
  9156 ;;                  1    wreg      char 
  9157 ;; Registers used:
  9158 ;;		wreg, fsr1l, fsr1h, fsr2l, fsr2h, status,2, status,0, prodl, prodh, cstack
  9159 ;; Tracked objects:
  9160 ;;		On entry : 0/0
  9161 ;;		On exit  : 0/0
  9162 ;;		Unchanged: 0/0
  9163 ;; Data sizes:     COMRAM   BANK0   BANK1   BANK2   BANK3   BANK4   BANK5   BANK6   BANK7   BANK8   BANK9  BANK10  BANK1
      +1  BANK12  BANK13  BANK14
  9164 ;;      Params:         0       7       0       0       0       0       0       0       0       0       0       0       
      +0       0       0       0
  9165 ;;      Locals:         0       5       0       0       0       0       0       0       0       0       0       0       
      +0       0       0       0
  9166 ;;      Temps:          0       2       0       0       0       0       0       0       0       0       0       0       
      +0       0       0       0
  9167 ;;      Totals:         0      14       0       0       0       0       0       0       0       0       0       0       
      +0       0       0       0
  9168 ;;Total ram usage:       14 bytes
  9169 ;; Hardware stack levels used:    1
  9170 ;; Hardware stack levels required when called:    1
  9171 ;; This function calls:
  9172 ;;		i2_memcpy
  9173 ;; This function is called by:
  9174 ;;		_FromMainHigh_recvmsg
  9175 ;; This function uses a non-reentrant model
  9176 ;;
  9177                           
  9178                           	psect	text57
  9179  000CD6                     __ptext57:
  9180                           	opt stack 0
  9181  000CD6                     i2_recv_msg:
  9182                           	opt stack 16
  9183                           
  9184                           ;messages.c: 65: unsigned char slot;
  9185                           ;messages.c: 69: msg *qmsg;
  9186                           ;messages.c: 70: size_t tlength;
  9187                           ;messages.c: 73: slot = qptr->cur_read_ind;
  9188                           
  9189                           ;incstack = 0
  9190  000CD6  0100               	movlb	0	; () banked
  9191  000CD8  EE20 F089          	lfsr	2,137
  9192  000CDC  0100               	movlb	0	; () banked
  9193  000CDE  516A               	movf	i2recv_msg@qptr& (0+255),w,b
  9194  000CE0  26D9               	addwf	fsr2l,f,c
  9195  000CE2  0100               	movlb	0	; () banked
  9196  000CE4  516B               	movf	(i2recv_msg@qptr+1)& (0+255),w,b
  9197  000CE6  22DA               	addwfc	fsr2h,f,c
  9198  000CE8  50DF               	movf	indf2,w,c
  9199  000CEA  0100               	movlb	0	; () banked
  9200  000CEC  6F73               	movwf	i2recv_msg@slot& (0+255),b
  9201                           
  9202                           ; BSR set to: 0
  9203                           ;messages.c: 74: qmsg = &(qptr->queue[slot]);
  9204  000CEE  0100               	movlb	0	; () banked
  9205  000CF0  5173               	movf	i2recv_msg@slot& (0+255),w,b
  9206  000CF2  0D11               	mullw	17
  9207  000CF4  50F3               	movf	prodl,w,c
  9208  000CF6  0100               	movlb	0	; () banked
  9209  000CF8  256A               	addwf	i2recv_msg@qptr& (0+255),w,b
  9210  000CFA  0100               	movlb	0	; () banked
  9211  000CFC  6F76               	movwf	i2recv_msg@qmsg& (0+255),b
  9212  000CFE  50F4               	movf	prodh,w,c
  9213  000D00  0100               	movlb	0	; () banked
  9214  000D02  216B               	addwfc	(i2recv_msg@qptr+1)& (0+255),w,b
  9215  000D04  0100               	movlb	0	; () banked
  9216  000D06  6F77               	movwf	(i2recv_msg@qmsg+1)& (0+255),b
  9217                           
  9218                           ; BSR set to: 0
  9219                           ;messages.c: 75: if (qmsg->full == 1) {
  9220  000D08  0E01               	movlw	1
  9221  000D0A  C076  FFD9         	movff	i2recv_msg@qmsg,fsr2l
  9222  000D0E  C077  FFDA         	movff	i2recv_msg@qmsg+1,fsr2h
  9223  000D12  62DF               	cpfseq	indf2,c
  9224  000D14  D06D               	goto	i2l3587
  9225                           
  9226                           ; BSR set to: 0
  9227                           ;messages.c: 77: if (qmsg->length > maxlength) {
  9228  000D16  0100               	movlb	0	; () banked
  9229  000D18  EE20 F001          	lfsr	2,1
  9230  000D1C  0100               	movlb	0	; () banked
  9231  000D1E  5176               	movf	i2recv_msg@qmsg& (0+255),w,b
  9232  000D20  26D9               	addwf	fsr2l,f,c
  9233  000D22  0100               	movlb	0	; () banked
  9234  000D24  5177               	movf	(i2recv_msg@qmsg+1)& (0+255),w,b
  9235  000D26  22DA               	addwfc	fsr2h,f,c
  9236  000D28  50DF               	movf	indf2,w,c
  9237  000D2A  0100               	movlb	0	; () banked
  9238  000D2C  5D6C               	subwf	i2recv_msg@maxlength& (0+255),w,b
  9239  000D2E  B0D8               	btfsc	status,0,c
  9240  000D30  D002               	goto	i2l3571
  9241                           
  9242                           ; BSR set to: 0
  9243                           ;messages.c: 78: return (-3);
  9244  000D32  0EFD               	movlw	253
  9245  000D34  0012               	return	
  9246  000D36                     i2l3571:
  9247                           
  9248                           ; BSR set to: 0
  9249                           ;messages.c: 79: }
  9250                           ;messages.c: 81: tlength = qmsg->length;
  9251  000D36  0100               	movlb	0	; () banked
  9252  000D38  EE20 F001          	lfsr	2,1
  9253  000D3C  0100               	movlb	0	; () banked
  9254  000D3E  5176               	movf	i2recv_msg@qmsg& (0+255),w,b
  9255  000D40  26D9               	addwf	fsr2l,f,c
  9256  000D42  0100               	movlb	0	; () banked
  9257  000D44  5177               	movf	(i2recv_msg@qmsg+1)& (0+255),w,b
  9258  000D46  22DA               	addwfc	fsr2h,f,c
  9259  000D48  50DF               	movf	indf2,w,c
  9260  000D4A  0100               	movlb	0	; () banked
  9261  000D4C  6F71               	movwf	??i2_recv_msg& (0+255),b
  9262  000D4E  0100               	movlb	0	; () banked
  9263  000D50  5171               	movf	??i2_recv_msg& (0+255),w,b
  9264  000D52  0100               	movlb	0	; () banked
  9265  000D54  6F74               	movwf	i2recv_msg@tlength& (0+255),b
  9266  000D56  0100               	movlb	0	; () banked
  9267  000D58  6B75               	clrf	(i2recv_msg@tlength+1)& (0+255),b
  9268                           
  9269                           ; BSR set to: 0
  9270                           ;messages.c: 82: memcpy(data, qmsg->data, tlength);
  9271  000D5A  0100               	movlb	0	; () banked
  9272  000D5C  C070  F061         	movff	i2recv_msg@data+1,i2memcpy@d1+1
  9273  000D60  0100               	movlb	0	; () banked
  9274  000D62  C06F  F060         	movff	i2recv_msg@data,i2memcpy@d1
  9275  000D66  0E03               	movlw	3
  9276  000D68  0100               	movlb	0	; () banked
  9277  000D6A  2576               	addwf	i2recv_msg@qmsg& (0+255),w,b
  9278  000D6C  0100               	movlb	0	; () banked
  9279  000D6E  6F71               	movwf	??i2_recv_msg& (0+255),b
  9280  000D70  0E00               	movlw	0
  9281  000D72  0100               	movlb	0	; () banked
  9282  000D74  2177               	addwfc	(i2recv_msg@qmsg+1)& (0+255),w,b
  9283  000D76  0100               	movlb	0	; () banked
  9284  000D78  6F72               	movwf	(??i2_recv_msg+1)& (0+255),b
  9285  000D7A  C071  F062         	movff	??i2_recv_msg,i2memcpy@s1
  9286  000D7E  C072  F063         	movff	??i2_recv_msg+1,i2memcpy@s1+1
  9287  000D82  C074  F064         	movff	i2recv_msg@tlength,i2memcpy@n
  9288  000D86  C075  F065         	movff	i2recv_msg@tlength+1,i2memcpy@n+1
  9289  000D8A  EC95  F00B         	call	i2_memcpy	;wreg free
  9290                           
  9291                           ;messages.c: 88: qptr->cur_read_ind = (qptr->cur_read_ind + 1) % 8;
  9292  000D8E  0100               	movlb	0	; () banked
  9293  000D90  EE20 F089          	lfsr	2,137
  9294  000D94  0100               	movlb	0	; () banked
  9295  000D96  516A               	movf	i2recv_msg@qptr& (0+255),w,b
  9296  000D98  26D9               	addwf	fsr2l,f,c
  9297  000D9A  0100               	movlb	0	; () banked
  9298  000D9C  516B               	movf	(i2recv_msg@qptr+1)& (0+255),w,b
  9299  000D9E  22DA               	addwfc	fsr2h,f,c
  9300  000DA0  0100               	movlb	0	; () banked
  9301  000DA2  EE10 F089          	lfsr	1,137
  9302  000DA6  0100               	movlb	0	; () banked
  9303  000DA8  516A               	movf	i2recv_msg@qptr& (0+255),w,b
  9304  000DAA  26E1               	addwf	fsr1l,f,c
  9305  000DAC  0100               	movlb	0	; () banked
  9306  000DAE  516B               	movf	(i2recv_msg@qptr+1)& (0+255),w,b
  9307  000DB0  22E2               	addwfc	fsr1h,f,c
  9308  000DB2  50E7               	movf	indf1,w,c
  9309  000DB4  0100               	movlb	0	; () banked
  9310  000DB6  6F71               	movwf	??i2_recv_msg& (0+255),b
  9311  000DB8  0100               	movlb	0	; () banked
  9312  000DBA  2971               	incf	??i2_recv_msg& (0+255),w,b
  9313  000DBC  0B07               	andlw	7
  9314  000DBE  6EDF               	movwf	indf2,c
  9315                           
  9316                           ; BSR set to: 0
  9317                           ;messages.c: 90: (*msgtype) = qmsg->msgtype;
  9318  000DC0  0100               	movlb	0	; () banked
  9319  000DC2  EE20 F002          	lfsr	2,2
  9320  000DC6  0100               	movlb	0	; () banked
  9321  000DC8  5176               	movf	i2recv_msg@qmsg& (0+255),w,b
  9322  000DCA  26D9               	addwf	fsr2l,f,c
  9323  000DCC  0100               	movlb	0	; () banked
  9324  000DCE  5177               	movf	(i2recv_msg@qmsg+1)& (0+255),w,b
  9325  000DD0  22DA               	addwfc	fsr2h,f,c
  9326  000DD2  C06D  FFE1         	movff	i2recv_msg@msgtype,fsr1l
  9327  000DD6  C06E  FFE2         	movff	i2recv_msg@msgtype+1,fsr1h
  9328  000DDA  CFDF FFE7          	movff	indf2,indf1
  9329                           
  9330                           ; BSR set to: 0
  9331                           ;messages.c: 92: qmsg->full = 0;
  9332  000DDE  C076  FFD9         	movff	i2recv_msg@qmsg,fsr2l
  9333  000DE2  C077  FFDA         	movff	i2recv_msg@qmsg+1,fsr2h
  9334  000DE6  0E00               	movlw	0
  9335  000DE8  6EDF               	movwf	indf2,c
  9336                           
  9337                           ; BSR set to: 0
  9338                           ;messages.c: 93: return (tlength);
  9339  000DEA  0100               	movlb	0	; () banked
  9340  000DEC  5174               	movf	i2recv_msg@tlength& (0+255),w,b
  9341  000DEE  0012               	return	
  9342  000DF0                     i2l3587:
  9343                           
  9344                           ; BSR set to: 0
  9345                           ;messages.c: 95: return (-4);
  9346  000DF0  0EFC               	movlw	252
  9347  000DF2  0012               	return	
  9348  000DF4                     __end_ofi2_recv_msg:
  9349                           	opt stack 0
  9350                           pclatu	equ	0xFFB
  9351                           pclath	equ	0xFFA
  9352                           tblptru	equ	0xFF8
  9353                           tblptrh	equ	0xFF7
  9354                           tblptrl	equ	0xFF6
  9355                           tablat	equ	0xFF5
  9356                           prodh	equ	0xFF4
  9357                           prodl	equ	0xFF3
  9358                           intcon	equ	0xFF2
  9359                           postinc0	equ	0xFEE
  9360                           fsr0h	equ	0xFEA
  9361                           fsr0l	equ	0xFE9
  9362                           wreg	equ	0xFE8
  9363                           indf1	equ	0xFE7
  9364                           fsr1h	equ	0xFE2
  9365                           fsr1l	equ	0xFE1
  9366                           bsr	equ	0xFE0
  9367                           indf2	equ	0xFDF
  9368                           postinc2	equ	0xFDE
  9369                           postdec2	equ	0xFDD
  9370                           fsr2h	equ	0xFDA
  9371                           fsr2l	equ	0xFD9
  9372                           status	equ	0xFD8
  9373                           
  9374 ;; *************** function i2_memcpy *****************
  9375 ;; Defined at:
  9376 ;;		line 11 in file "C:\Program Files (x86)\Microchip\xc8\v1.32\sources\common\memcpy.c"
  9377 ;; Parameters:    Size  Location     Type
  9378 ;;  d1              2    0[BANK0 ] PTR void 
  9379 ;;		 -> FromMainLow_MQ.queue(136), FromMainHigh_MQ.queue(136), ToMainHigh_MQ.queue(136), ToMainLow_MQ.queue(136), 
  9380 ;;		 -> NULL(0), timer0_int_handler@val(2), uart_transmit_interrupt_handler@data(14), FromMainHigh_MQ(138), 
  9381 ;;		 -> FromMainLow_MQ(138), ToMainHigh_MQ(138), ToMainLow_MQ(138), main@msgbuffer(15), 
  9382 ;;		 -> main@ic(38), 
  9383 ;;  s1              2    2[BANK0 ] PTR const void 
  9384 ;;		 -> ToMainLow_MQ.data(14), ToMainHigh_MQ.data(14), FromMainLow_MQ.data(14), FromMainHigh_MQ.data(14), 
  9385 ;;		 -> ToMainLow_MQ.queue.data(14), ToMainHigh_MQ.queue.data(14), FromMainHigh_MQ.queue.data(14), FromMainLow_MQ.queue.
      +data(14), 
  9386 ;;		 -> NULL(0), timer0_int_handler@val(2), timer1_lthread@i2c_msg(14), uart_receive_interrupt_handler@message_count(1),
      + 
  9387 ;;		 -> uart_receive_interrupt_handler@bad_checksum_message(3), uart_receive_interrupt_handler@gooey_uart_center(14), ua
      +rt_receive_interrupt_handler@bad_counter_id(2), uart_receive_interrupt_handler@bad_end_id(1), 
  9388 ;;		 -> uart_receive_interrupt_handler@bad_start_id(1), FromMainHigh_MQ(138), FromMainLow_MQ(138), ToMainHigh_MQ(138), 
  9389 ;;		 -> ToMainLow_MQ(138), main@uart_response(14), main@sensor_data(14), main@ic(38), 
  9390 ;;		 -> main@t1thread_data(17), 
  9391 ;;  n               2    4[BANK0 ] unsigned int 
  9392 ;; Auto vars:     Size  Location     Type
  9393 ;;  memcpy          2    8[BANK0 ] PTR const unsigned char 
  9394 ;;		 -> ToMainLow_MQ.data(14), ToMainHigh_MQ.data(14), FromMainLow_MQ.data(14), FromMainHigh_MQ.data(14), 
  9395 ;;		 -> ToMainLow_MQ.queue.data(14), ToMainHigh_MQ.queue.data(14), FromMainHigh_MQ.queue.data(14), FromMainLow_MQ.queue.
      +data(14), 
  9396 ;;		 -> NULL(0), timer0_int_handler@val(2), timer1_lthread@i2c_msg(14), uart_receive_interrupt_handler@message_count(1),
      + 
  9397 ;;		 -> uart_receive_interrupt_handler@bad_checksum_message(3), uart_receive_interrupt_handler@gooey_uart_center(14), ua
      +rt_receive_interrupt_handler@bad_counter_id(2), uart_receive_interrupt_handler@bad_end_id(1), 
  9398 ;;		 -> uart_receive_interrupt_handler@bad_start_id(1), FromMainHigh_MQ(138), FromMainLow_MQ(138), ToMainHigh_MQ(138), 
  9399 ;;		 -> ToMainLow_MQ(138), main@uart_response(14), main@sensor_data(14), main@ic(38), 
  9400 ;;		 -> main@t1thread_data(17), 
  9401 ;;  memcpy          2    6[BANK0 ] PTR unsigned char 
  9402 ;;		 -> FromMainLow_MQ.queue(136), FromMainHigh_MQ.queue(136), ToMainHigh_MQ.queue(136), ToMainLow_MQ.queue(136), 
  9403 ;;		 -> NULL(0), timer0_int_handler@val(2), uart_transmit_interrupt_handler@data(14), FromMainHigh_MQ(138), 
  9404 ;;		 -> FromMainLow_MQ(138), ToMainHigh_MQ(138), ToMainLow_MQ(138), main@msgbuffer(15), 
  9405 ;;		 -> main@ic(38), 
  9406 ;; Return value:  Size  Location     Type
  9407 ;;                  2    0[BANK0 ] PTR void 
  9408 ;; Registers used:
  9409 ;;		wreg, fsr1l, fsr1h, fsr2l, fsr2h, status,2, status,0
  9410 ;; Tracked objects:
  9411 ;;		On entry : 0/0
  9412 ;;		On exit  : 0/0
  9413 ;;		Unchanged: 0/0
  9414 ;; Data sizes:     COMRAM   BANK0   BANK1   BANK2   BANK3   BANK4   BANK5   BANK6   BANK7   BANK8   BANK9  BANK10  BANK1
      +1  BANK12  BANK13  BANK14
  9415 ;;      Params:         0       6       0       0       0       0       0       0       0       0       0       0       
      +0       0       0       0
  9416 ;;      Locals:         0       4       0       0       0       0       0       0       0       0       0       0       
      +0       0       0       0
  9417 ;;      Temps:          0       0       0       0       0       0       0       0       0       0       0       0       
      +0       0       0       0
  9418 ;;      Totals:         0      10       0       0       0       0       0       0       0       0       0       0       
      +0       0       0       0
  9419 ;;Total ram usage:       10 bytes
  9420 ;; Hardware stack levels used:    1
  9421 ;; This function calls:
  9422 ;;		Nothing
  9423 ;; This function is called by:
  9424 ;;		i2_send_msg
  9425 ;;		i2_recv_msg
  9426 ;; This function uses a non-reentrant model
  9427 ;;
  9428                           
  9429                           	psect	text58
  9430  00172A                     __ptext58:
  9431                           	opt stack 0
  9432  00172A                     i2_memcpy:
  9433                           	opt stack 16
  9434                           
  9435                           ; BSR set to: 0
  9436                           ;incstack = 0
  9437  00172A  0100               	movlb	0	; () banked
  9438  00172C  C063  F069         	movff	i2memcpy@s1+1,i2memcpy@s+1
  9439  001730  0100               	movlb	0	; () banked
  9440  001732  C062  F068         	movff	i2memcpy@s1,i2memcpy@s
  9441  001736  0100               	movlb	0	; () banked
  9442  001738  C061  F067         	movff	i2memcpy@d1+1,i2memcpy@d+1
  9443  00173C  0100               	movlb	0	; () banked
  9444  00173E  C060  F066         	movff	i2memcpy@d1,i2memcpy@d
  9445  001742  D010               	goto	i2l3453
  9446  001744                     i2l3447:
  9447                           
  9448                           ; BSR set to: 0
  9449  001744  C068  FFD9         	movff	i2memcpy@s,fsr2l
  9450  001748  C069  FFDA         	movff	i2memcpy@s+1,fsr2h
  9451  00174C  C066  FFE1         	movff	i2memcpy@d,fsr1l
  9452  001750  C067  FFE2         	movff	i2memcpy@d+1,fsr1h
  9453  001754  CFDF FFE7          	movff	indf2,indf1
  9454                           
  9455                           ; BSR set to: 0
  9456  001758  0100               	movlb	0	; () banked
  9457  00175A  4B68               	infsnz	i2memcpy@s& (0+255),f,b
  9458  00175C  2B69               	incf	(i2memcpy@s+1)& (0+255),f,b
  9459                           
  9460                           ; BSR set to: 0
  9461  00175E  0100               	movlb	0	; () banked
  9462  001760  4B66               	infsnz	i2memcpy@d& (0+255),f,b
  9463  001762  2B67               	incf	(i2memcpy@d+1)& (0+255),f,b
  9464  001764                     i2l3453:
  9465                           
  9466                           ; BSR set to: 0
  9467  001764  0100               	movlb	0	; () banked
  9468  001766  0764               	decf	i2memcpy@n& (0+255),f,b
  9469  001768  A0D8               	btfss	status,0,c
  9470  00176A  0765               	decf	(i2memcpy@n+1)& (0+255),f,b
  9471  00176C  0100               	movlb	0	; () banked
  9472  00176E  2964               	incf	i2memcpy@n& (0+255),w,b
  9473  001770  B4D8               	btfsc	status,2,c
  9474  001772  2965               	incf	(i2memcpy@n+1)& (0+255),w,b
  9475  001774  B4D8               	btfsc	status,2,c
  9476                           
  9477                           ; BSR set to: 0
  9478                           
  9479                           ; BSR set to: 0
  9480                           ;	Return value of i2_memcpy is never used
  9481  001776  0012               	return	
  9482  001778  D7E5               	goto	i2l3447
  9483  00177A                     __end_ofi2_memcpy:
  9484                           	opt stack 0
  9485                           pclatu	equ	0xFFB
  9486                           pclath	equ	0xFFA
  9487                           tblptru	equ	0xFF8
  9488                           tblptrh	equ	0xFF7
  9489                           tblptrl	equ	0xFF6
  9490                           tablat	equ	0xFF5
  9491                           prodh	equ	0xFF4
  9492                           prodl	equ	0xFF3
  9493                           intcon	equ	0xFF2
  9494                           postinc0	equ	0xFEE
  9495                           fsr0h	equ	0xFEA
  9496                           fsr0l	equ	0xFE9
  9497                           wreg	equ	0xFE8
  9498                           indf1	equ	0xFE7
  9499                           fsr1h	equ	0xFE2
  9500                           fsr1l	equ	0xFE1
  9501                           bsr	equ	0xFE0
  9502                           indf2	equ	0xFDF
  9503                           postinc2	equ	0xFDE
  9504                           postdec2	equ	0xFDD
  9505                           fsr2h	equ	0xFDA
  9506                           fsr2l	equ	0xFD9
  9507                           status	equ	0xFD8
  9508                           
  9509 ;; *************** function _SleepIfOkay *****************
  9510 ;; Defined at:
  9511 ;;		line 227 in file "../src/messages.c"
  9512 ;; Parameters:    Size  Location     Type
  9513 ;;		None
  9514 ;; Auto vars:     Size  Location     Type
  9515 ;;		None
  9516 ;; Return value:  Size  Location     Type
  9517 ;;		None               void
  9518 ;; Registers used:
  9519 ;;		wreg, fsr2l, fsr2h, status,2, status,0, prodl, prodh, cstack
  9520 ;; Tracked objects:
  9521 ;;		On entry : 0/0
  9522 ;;		On exit  : 0/0
  9523 ;;		Unchanged: 0/0
  9524 ;; Data sizes:     COMRAM   BANK0   BANK1   BANK2   BANK3   BANK4   BANK5   BANK6   BANK7   BANK8   BANK9  BANK10  BANK1
      +1  BANK12  BANK13  BANK14
  9525 ;;      Params:         0       0       0       0       0       0       0       0       0       0       0       0       
      +0       0       0       0
  9526 ;;      Locals:         0       0       0       0       0       0       0       0       0       0       0       0       
      +0       0       0       0
  9527 ;;      Temps:          0       0       0       0       0       0       0       0       0       0       0       0       
      +0       0       0       0
  9528 ;;      Totals:         0       0       0       0       0       0       0       0       0       0       0       0       
      +0       0       0       0
  9529 ;;Total ram usage:        0 bytes
  9530 ;; Hardware stack levels used:    1
  9531 ;; Hardware stack levels required when called:    2
  9532 ;; This function calls:
  9533 ;;		_enter_sleep_mode
  9534 ;;		i2_check_msg
  9535 ;;		i2_in_high_int
  9536 ;;		i2_in_low_int
  9537 ;; This function is called by:
  9538 ;;		_InterruptHandlerHigh
  9539 ;; This function uses a non-reentrant model
  9540 ;;
  9541                           
  9542                           	psect	text59
  9543  001622                     __ptext59:
  9544                           	opt stack 0
  9545  001622                     _SleepIfOkay:
  9546                           	opt stack 17
  9547                           
  9548                           ;messages.c: 229: if (MQ_Main_Willing_to_block == 0) {
  9549                           
  9550                           ; BSR set to: 0
  9551                           ;incstack = 0
  9552  001622  0100               	movlb	0	; () banked
  9553  001624  67B8               	tstfsz	_MQ_Main_Willing_to_block& (0+255),b
  9554  001626  D001               	goto	i2l2817
  9555  001628  0012               	return	
  9556  00162A                     i2l2817:
  9557                           
  9558                           ; BSR set to: 0
  9559                           ;messages.c: 231: }
  9560                           ;messages.c: 234: if (in_low_int()) {
  9561  00162A  EC3A  F00C         	call	i2_in_low_int	;wreg free
  9562  00162E  0100               	movlb	0	; () banked
  9563  001630  5163               	movf	(?i2_in_low_int+1)& (0+255),w,b
  9564  001632  0100               	movlb	0	; () banked
  9565  001634  1162               	iorwf	?i2_in_low_int& (0+255),w,b
  9566  001636  A4D8               	btfss	status,2,c
  9567  001638  0012               	return	
  9568                           
  9569                           ; BSR set to: 0
  9570                           ;messages.c: 236: }
  9571                           ;messages.c: 239: if (!in_high_int()) {
  9572                           
  9573                           ; BSR set to: 0
  9574                           
  9575                           ; BSR set to: 0
  9576                           ;messages.c: 235: return;
  9577  00163A  ECEB  F00D         	call	i2_in_high_int	;wreg free
  9578  00163E  0100               	movlb	0	; () banked
  9579  001640  5161               	movf	(?i2_in_high_int+1)& (0+255),w,b
  9580  001642  0100               	movlb	0	; () banked
  9581  001644  1160               	iorwf	?i2_in_high_int& (0+255),w,b
  9582  001646  B4D8               	btfsc	status,2,c
  9583  001648  0012               	return	
  9584                           
  9585                           ; BSR set to: 0
  9586                           ;messages.c: 241: }
  9587                           ;messages.c: 246: if (check_msg(&ToMainHigh_MQ)) {
  9588                           
  9589                           ; BSR set to: 0
  9590                           
  9591                           ; BSR set to: 0
  9592                           ;messages.c: 240: return;
  9593  00164A  0102               	movlb	2	; () banked
  9594  00164C  0E02               	movlw	high _ToMainHigh_MQ
  9595  00164E  0100               	movlb	0	; () banked
  9596  001650  6F61               	movwf	(i2check_msg@qptr+1)& (0+255),b
  9597  001652  0102               	movlb	2	; () banked
  9598  001654  0E00               	movlw	low _ToMainHigh_MQ
  9599  001656  0100               	movlb	0	; () banked
  9600  001658  6F60               	movwf	i2check_msg@qptr& (0+255),b
  9601  00165A  ECC9  F00C         	call	i2_check_msg	;wreg free
  9602  00165E  0900               	iorlw	0
  9603  001660  A4D8               	btfss	status,2,c
  9604  001662  0012               	return	
  9605                           
  9606                           ;messages.c: 248: }
  9607                           ;messages.c: 249: if (check_msg(&ToMainLow_MQ)) {
  9608                           
  9609                           ;messages.c: 247: return;
  9610  001664  0101               	movlb	1	; () banked
  9611  001666  0E01               	movlw	high _ToMainLow_MQ
  9612  001668  0100               	movlb	0	; () banked
  9613  00166A  6F61               	movwf	(i2check_msg@qptr+1)& (0+255),b
  9614  00166C  0101               	movlb	1	; () banked
  9615  00166E  0E00               	movlw	low _ToMainLow_MQ
  9616  001670  0100               	movlb	0	; () banked
  9617  001672  6F60               	movwf	i2check_msg@qptr& (0+255),b
  9618  001674  ECC9  F00C         	call	i2_check_msg	;wreg free
  9619  001678  0900               	iorlw	0
  9620  00167A  B4D8               	btfsc	status,2,c
  9621                           
  9622                           ;messages.c: 251: }
  9623                           ;messages.c: 252: enter_sleep_mode();
  9624                           
  9625                           ;messages.c: 250: return;
  9626  00167C  EC23  F00E         	call	_enter_sleep_mode	;wreg free
  9627  001680  0012               	return	
  9628  001682                     __end_of_SleepIfOkay:
  9629                           	opt stack 0
  9630                           pclatu	equ	0xFFB
  9631                           pclath	equ	0xFFA
  9632                           tblptru	equ	0xFF8
  9633                           tblptrh	equ	0xFF7
  9634                           tblptrl	equ	0xFF6
  9635                           tablat	equ	0xFF5
  9636                           prodh	equ	0xFF4
  9637                           prodl	equ	0xFF3
  9638                           intcon	equ	0xFF2
  9639                           postinc0	equ	0xFEE
  9640                           fsr0h	equ	0xFEA
  9641                           fsr0l	equ	0xFE9
  9642                           wreg	equ	0xFE8
  9643                           indf1	equ	0xFE7
  9644                           fsr1h	equ	0xFE2
  9645                           fsr1l	equ	0xFE1
  9646                           bsr	equ	0xFE0
  9647                           indf2	equ	0xFDF
  9648                           postinc2	equ	0xFDE
  9649                           postdec2	equ	0xFDD
  9650                           fsr2h	equ	0xFDA
  9651                           fsr2l	equ	0xFD9
  9652                           status	equ	0xFD8
  9653                           
  9654 ;; *************** function i2_in_low_int *****************
  9655 ;; Defined at:
  9656 ;;		line 33 in file "../src/interrupts.c"
  9657 ;; Parameters:    Size  Location     Type
  9658 ;;		None
  9659 ;; Auto vars:     Size  Location     Type
  9660 ;;		None
  9661 ;; Return value:  Size  Location     Type
  9662 ;;                  2    2[BANK0 ] int 
  9663 ;; Registers used:
  9664 ;;		wreg, status,2, status,0, cstack
  9665 ;; Tracked objects:
  9666 ;;		On entry : 0/0
  9667 ;;		On exit  : 0/0
  9668 ;;		Unchanged: 0/0
  9669 ;; Data sizes:     COMRAM   BANK0   BANK1   BANK2   BANK3   BANK4   BANK5   BANK6   BANK7   BANK8   BANK9  BANK10  BANK1
      +1  BANK12  BANK13  BANK14
  9670 ;;      Params:         0       2       0       0       0       0       0       0       0       0       0       0       
      +0       0       0       0
  9671 ;;      Locals:         0       0       0       0       0       0       0       0       0       0       0       0       
      +0       0       0       0
  9672 ;;      Temps:          0       0       0       0       0       0       0       0       0       0       0       0       
      +0       0       0       0
  9673 ;;      Totals:         0       2       0       0       0       0       0       0       0       0       0       0       
      +0       0       0       0
  9674 ;;Total ram usage:        2 bytes
  9675 ;; Hardware stack levels used:    1
  9676 ;; Hardware stack levels required when called:    1
  9677 ;; This function calls:
  9678 ;;		i2_in_high_int
  9679 ;; This function is called by:
  9680 ;;		_SleepIfOkay
  9681 ;; This function uses a non-reentrant model
  9682 ;;
  9683                           
  9684                           	psect	text60
  9685  001874                     __ptext60:
  9686                           	opt stack 0
  9687  001874                     i2_in_low_int:
  9688                           	opt stack 17
  9689                           
  9690                           ;interrupts.c: 34: if (INTCONbits.GIEL == 1) {
  9691                           
  9692                           ;incstack = 0
  9693  001874  ACF2               	btfss	intcon,6,c	;volatile
  9694  001876  D007               	goto	i2l2679
  9695                           
  9696                           ;interrupts.c: 35: return (0);
  9697  001878  0E00               	movlw	0
  9698  00187A  0100               	movlb	0	; () banked
  9699  00187C  6F63               	movwf	(?i2_in_low_int+1)& (0+255),b
  9700  00187E  0E00               	movlw	0
  9701  001880  0100               	movlb	0	; () banked
  9702  001882  6F62               	movwf	?i2_in_low_int& (0+255),b
  9703  001884  0012               	return	
  9704  001886                     i2l2679:
  9705  001886  ECEB  F00D         	call	i2_in_high_int	;wreg free
  9706  00188A  0100               	movlb	0	; () banked
  9707  00188C  5161               	movf	(?i2_in_high_int+1)& (0+255),w,b
  9708  00188E  0100               	movlb	0	; () banked
  9709  001890  1160               	iorwf	?i2_in_high_int& (0+255),w,b
  9710  001892  B4D8               	btfsc	status,2,c
  9711  001894  D007               	goto	i2l2687
  9712                           
  9713                           ; BSR set to: 0
  9714                           ;interrupts.c: 37: return (0);
  9715  001896  0E00               	movlw	0
  9716  001898  0100               	movlb	0	; () banked
  9717  00189A  6F63               	movwf	(?i2_in_low_int+1)& (0+255),b
  9718  00189C  0E00               	movlw	0
  9719  00189E  0100               	movlb	0	; () banked
  9720  0018A0  6F62               	movwf	?i2_in_low_int& (0+255),b
  9721  0018A2  0012               	return	
  9722  0018A4                     i2l2687:
  9723                           
  9724                           ; BSR set to: 0
  9725                           ;interrupts.c: 39: return (1);
  9726  0018A4  0E00               	movlw	0
  9727  0018A6  0100               	movlb	0	; () banked
  9728  0018A8  6F63               	movwf	(?i2_in_low_int+1)& (0+255),b
  9729  0018AA  0E01               	movlw	1
  9730  0018AC  0100               	movlb	0	; () banked
  9731  0018AE  6F62               	movwf	?i2_in_low_int& (0+255),b
  9732  0018B0  0012               	return	
  9733  0018B2                     __end_ofi2_in_low_int:
  9734                           	opt stack 0
  9735                           pclatu	equ	0xFFB
  9736                           pclath	equ	0xFFA
  9737                           tblptru	equ	0xFF8
  9738                           tblptrh	equ	0xFF7
  9739                           tblptrl	equ	0xFF6
  9740                           tablat	equ	0xFF5
  9741                           prodh	equ	0xFF4
  9742                           prodl	equ	0xFF3
  9743                           intcon	equ	0xFF2
  9744                           postinc0	equ	0xFEE
  9745                           fsr0h	equ	0xFEA
  9746                           fsr0l	equ	0xFE9
  9747                           wreg	equ	0xFE8
  9748                           indf1	equ	0xFE7
  9749                           fsr1h	equ	0xFE2
  9750                           fsr1l	equ	0xFE1
  9751                           bsr	equ	0xFE0
  9752                           indf2	equ	0xFDF
  9753                           postinc2	equ	0xFDE
  9754                           postdec2	equ	0xFDD
  9755                           fsr2h	equ	0xFDA
  9756                           fsr2l	equ	0xFD9
  9757                           status	equ	0xFD8
  9758                           
  9759 ;; *************** function i2_in_high_int *****************
  9760 ;; Defined at:
  9761 ;;		line 25 in file "../src/interrupts.c"
  9762 ;; Parameters:    Size  Location     Type
  9763 ;;		None
  9764 ;; Auto vars:     Size  Location     Type
  9765 ;;		None
  9766 ;; Return value:  Size  Location     Type
  9767 ;;                  2    0[BANK0 ] int 
  9768 ;; Registers used:
  9769 ;;		wreg, status,2
  9770 ;; Tracked objects:
  9771 ;;		On entry : 0/0
  9772 ;;		On exit  : 0/0
  9773 ;;		Unchanged: 0/0
  9774 ;; Data sizes:     COMRAM   BANK0   BANK1   BANK2   BANK3   BANK4   BANK5   BANK6   BANK7   BANK8   BANK9  BANK10  BANK1
      +1  BANK12  BANK13  BANK14
  9775 ;;      Params:         0       2       0       0       0       0       0       0       0       0       0       0       
      +0       0       0       0
  9776 ;;      Locals:         0       0       0       0       0       0       0       0       0       0       0       0       
      +0       0       0       0
  9777 ;;      Temps:          0       0       0       0       0       0       0       0       0       0       0       0       
      +0       0       0       0
  9778 ;;      Totals:         0       2       0       0       0       0       0       0       0       0       0       0       
      +0       0       0       0
  9779 ;;Total ram usage:        2 bytes
  9780 ;; Hardware stack levels used:    1
  9781 ;; This function calls:
  9782 ;;		Nothing
  9783 ;; This function is called by:
  9784 ;;		_SleepIfOkay
  9785 ;;		i2_in_low_int
  9786 ;; This function uses a non-reentrant model
  9787 ;;
  9788                           
  9789                           	psect	text61
  9790  001BD6                     __ptext61:
  9791                           	opt stack 0
  9792  001BD6                     i2_in_high_int:
  9793                           	opt stack 17
  9794                           
  9795                           ;interrupts.c: 26: return (!INTCONbits.GIEH);
  9796                           
  9797                           ; BSR set to: 0
  9798                           ;incstack = 0
  9799  001BD6  0E00               	movlw	0
  9800  001BD8  AEF2               	btfss	intcon,7,c	;volatile
  9801  001BDA  0E01               	movlw	1
  9802  001BDC  0100               	movlb	0	; () banked
  9803  001BDE  6F60               	movwf	?i2_in_high_int& (0+255),b
  9804  001BE0  0100               	movlb	0	; () banked
  9805  001BE2  6B61               	clrf	(?i2_in_high_int+1)& (0+255),b
  9806  001BE4  0012               	return	
  9807  001BE6                     __end_ofi2_in_high_int:
  9808                           	opt stack 0
  9809                           pclatu	equ	0xFFB
  9810                           pclath	equ	0xFFA
  9811                           tblptru	equ	0xFF8
  9812                           tblptrh	equ	0xFF7
  9813                           tblptrl	equ	0xFF6
  9814                           tablat	equ	0xFF5
  9815                           prodh	equ	0xFF4
  9816                           prodl	equ	0xFF3
  9817                           intcon	equ	0xFF2
  9818                           postinc0	equ	0xFEE
  9819                           fsr0h	equ	0xFEA
  9820                           fsr0l	equ	0xFE9
  9821                           wreg	equ	0xFE8
  9822                           indf1	equ	0xFE7
  9823                           fsr1h	equ	0xFE2
  9824                           fsr1l	equ	0xFE1
  9825                           bsr	equ	0xFE0
  9826                           indf2	equ	0xFDF
  9827                           postinc2	equ	0xFDE
  9828                           postdec2	equ	0xFDD
  9829                           fsr2h	equ	0xFDA
  9830                           fsr2l	equ	0xFD9
  9831                           status	equ	0xFD8
  9832                           
  9833 ;; *************** function i2_check_msg *****************
  9834 ;; Defined at:
  9835 ;;		line 221 in file "../src/messages.c"
  9836 ;; Parameters:    Size  Location     Type
  9837 ;;  qptr            2    0[BANK0 ] PTR struct __msg_queue
  9838 ;;		 -> ToMainHigh_MQ(138), ToMainLow_MQ(138), 
  9839 ;; Auto vars:     Size  Location     Type
  9840 ;;		None
  9841 ;; Return value:  Size  Location     Type
  9842 ;;                  1    wreg      unsigned char 
  9843 ;; Registers used:
  9844 ;;		wreg, fsr2l, fsr2h, status,2, status,0, prodl, prodh
  9845 ;; Tracked objects:
  9846 ;;		On entry : 0/0
  9847 ;;		On exit  : 0/0
  9848 ;;		Unchanged: 0/0
  9849 ;; Data sizes:     COMRAM   BANK0   BANK1   BANK2   BANK3   BANK4   BANK5   BANK6   BANK7   BANK8   BANK9  BANK10  BANK1
      +1  BANK12  BANK13  BANK14
  9850 ;;      Params:         0       2       0       0       0       0       0       0       0       0       0       0       
      +0       0       0       0
  9851 ;;      Locals:         0       0       0       0       0       0       0       0       0       0       0       0       
      +0       0       0       0
  9852 ;;      Temps:          0       1       0       0       0       0       0       0       0       0       0       0       
      +0       0       0       0
  9853 ;;      Totals:         0       3       0       0       0       0       0       0       0       0       0       0       
      +0       0       0       0
  9854 ;;Total ram usage:        3 bytes
  9855 ;; Hardware stack levels used:    1
  9856 ;; This function calls:
  9857 ;;		Nothing
  9858 ;; This function is called by:
  9859 ;;		_SleepIfOkay
  9860 ;; This function uses a non-reentrant model
  9861 ;;
  9862                           
  9863                           	psect	text62
  9864  001992                     __ptext62:
  9865                           	opt stack 0
  9866  001992                     i2_check_msg:
  9867                           	opt stack 18
  9868                           
  9869                           ;messages.c: 222: return (qptr->queue[qptr->cur_read_ind].full);
  9870                           
  9871                           ; BSR set to: 0
  9872                           ;incstack = 0
  9873  001992  0100               	movlb	0	; () banked
  9874  001994  EE20 F089          	lfsr	2,137
  9875  001998  0100               	movlb	0	; () banked
  9876  00199A  5160               	movf	i2check_msg@qptr& (0+255),w,b
  9877  00199C  26D9               	addwf	fsr2l,f,c
  9878  00199E  0100               	movlb	0	; () banked
  9879  0019A0  5161               	movf	(i2check_msg@qptr+1)& (0+255),w,b
  9880  0019A2  22DA               	addwfc	fsr2h,f,c
  9881  0019A4  50DF               	movf	indf2,w,c
  9882  0019A6  0100               	movlb	0	; () banked
  9883  0019A8  6F62               	movwf	??i2_check_msg& (0+255),b
  9884  0019AA  0100               	movlb	0	; () banked
  9885  0019AC  5162               	movf	??i2_check_msg& (0+255),w,b
  9886  0019AE  0D11               	mullw	17
  9887  0019B0  50F3               	movf	prodl,w,c
  9888  0019B2  0100               	movlb	0	; () banked
  9889  0019B4  2560               	addwf	i2check_msg@qptr& (0+255),w,b
  9890  0019B6  6ED9               	movwf	fsr2l,c
  9891  0019B8  50F4               	movf	prodh,w,c
  9892  0019BA  0100               	movlb	0	; () banked
  9893  0019BC  2161               	addwfc	(i2check_msg@qptr+1)& (0+255),w,b
  9894  0019BE  6EDA               	movwf	fsr2h,c
  9895  0019C0  50DF               	movf	indf2,w,c
  9896  0019C2  0012               	return	
  9897  0019C4                     __end_ofi2_check_msg:
  9898                           	opt stack 0
  9899                           pclatu	equ	0xFFB
  9900                           pclath	equ	0xFFA
  9901                           tblptru	equ	0xFF8
  9902                           tblptrh	equ	0xFF7
  9903                           tblptrl	equ	0xFF6
  9904                           tablat	equ	0xFF5
  9905                           prodh	equ	0xFF4
  9906                           prodl	equ	0xFF3
  9907                           intcon	equ	0xFF2
  9908                           postinc0	equ	0xFEE
  9909                           fsr0h	equ	0xFEA
  9910                           fsr0l	equ	0xFE9
  9911                           wreg	equ	0xFE8
  9912                           indf1	equ	0xFE7
  9913                           fsr1h	equ	0xFE2
  9914                           fsr1l	equ	0xFE1
  9915                           bsr	equ	0xFE0
  9916                           indf2	equ	0xFDF
  9917                           postinc2	equ	0xFDE
  9918                           postdec2	equ	0xFDD
  9919                           fsr2h	equ	0xFDA
  9920                           fsr2l	equ	0xFD9
  9921                           status	equ	0xFD8
  9922                           
  9923 ;; *************** function _enter_sleep_mode *****************
  9924 ;; Defined at:
  9925 ;;		line 203 in file "../src/messages.c"
  9926 ;; Parameters:    Size  Location     Type
  9927 ;;		None
  9928 ;; Auto vars:     Size  Location     Type
  9929 ;;		None
  9930 ;; Return value:  Size  Location     Type
  9931 ;;		None               void
  9932 ;; Registers used:
  9933 ;;		None
  9934 ;; Tracked objects:
  9935 ;;		On entry : 0/0
  9936 ;;		On exit  : 0/0
  9937 ;;		Unchanged: 0/0
  9938 ;; Data sizes:     COMRAM   BANK0   BANK1   BANK2   BANK3   BANK4   BANK5   BANK6   BANK7   BANK8   BANK9  BANK10  BANK1
      +1  BANK12  BANK13  BANK14
  9939 ;;      Params:         0       0       0       0       0       0       0       0       0       0       0       0       
      +0       0       0       0
  9940 ;;      Locals:         0       0       0       0       0       0       0       0       0       0       0       0       
      +0       0       0       0
  9941 ;;      Temps:          0       0       0       0       0       0       0       0       0       0       0       0       
      +0       0       0       0
  9942 ;;      Totals:         0       0       0       0       0       0       0       0       0       0       0       0       
      +0       0       0       0
  9943 ;;Total ram usage:        0 bytes
  9944 ;; Hardware stack levels used:    1
  9945 ;; This function calls:
  9946 ;;		Nothing
  9947 ;; This function is called by:
  9948 ;;		_SleepIfOkay
  9949 ;; This function uses a non-reentrant model
  9950 ;;
  9951                           
  9952                           	psect	text63
  9953  001C46                     __ptext63:
  9954                           	opt stack 0
  9955  001C46                     _enter_sleep_mode:
  9956                           	opt stack 18
  9957                           
  9958                           ;messages.c: 205: OSCCONbits.IDLEN = 1;
  9959                           
  9960                           ; BSR set to: 0
  9961                           ;incstack = 0
  9962  001C46  8ED3               	bsf	4051,7,c	;volatile
  9963  001C48  0003               	sleep		;# 
  9964  001C4A  0012               	return	
  9965  001C4C                     __end_of_enter_sleep_mode:
  9966                           	opt stack 0
  9967  0000                     pclatu	equ	0xFFB
  9968                           pclath	equ	0xFFA
  9969                           tblptru	equ	0xFF8
  9970                           tblptrh	equ	0xFF7
  9971                           tblptrl	equ	0xFF6
  9972                           tablat	equ	0xFF5
  9973                           prodh	equ	0xFF4
  9974                           prodl	equ	0xFF3
  9975                           intcon	equ	0xFF2
  9976                           postinc0	equ	0xFEE
  9977                           fsr0h	equ	0xFEA
  9978                           fsr0l	equ	0xFE9
  9979                           wreg	equ	0xFE8
  9980                           indf1	equ	0xFE7
  9981                           fsr1h	equ	0xFE2
  9982                           fsr1l	equ	0xFE1
  9983                           bsr	equ	0xFE0
  9984                           indf2	equ	0xFDF
  9985                           postinc2	equ	0xFDE
  9986                           postdec2	equ	0xFDD
  9987                           fsr2h	equ	0xFDA
  9988                           fsr2l	equ	0xFD9
  9989                           status	equ	0xFD8
  9990                           pclatu	equ	0xFFB
  9991                           pclath	equ	0xFFA
  9992                           tblptru	equ	0xFF8
  9993                           tblptrh	equ	0xFF7
  9994                           tblptrl	equ	0xFF6
  9995                           tablat	equ	0xFF5
  9996                           prodh	equ	0xFF4
  9997                           prodl	equ	0xFF3
  9998                           intcon	equ	0xFF2
  9999                           postinc0	equ	0xFEE
 10000                           fsr0h	equ	0xFEA
 10001                           fsr0l	equ	0xFE9
 10002                           wreg	equ	0xFE8
 10003                           indf1	equ	0xFE7
 10004                           fsr1h	equ	0xFE2
 10005                           fsr1l	equ	0xFE1
 10006                           bsr	equ	0xFE0
 10007                           indf2	equ	0xFDF
 10008                           postinc2	equ	0xFDE
 10009                           postdec2	equ	0xFDD
 10010                           fsr2h	equ	0xFDA
 10011                           fsr2l	equ	0xFD9
 10012                           status	equ	0xFD8
 10013                           
 10014                           	psect	param0
 10015  0000                     pclatu	equ	0xFFB
 10016                           pclath	equ	0xFFA
 10017                           tblptru	equ	0xFF8
 10018                           tblptrh	equ	0xFF7
 10019                           tblptrl	equ	0xFF6
 10020                           tablat	equ	0xFF5
 10021                           prodh	equ	0xFF4
 10022                           prodl	equ	0xFF3
 10023                           intcon	equ	0xFF2
 10024                           postinc0	equ	0xFEE
 10025                           fsr0h	equ	0xFEA
 10026                           fsr0l	equ	0xFE9
 10027                           wreg	equ	0xFE8
 10028                           indf1	equ	0xFE7
 10029                           fsr1h	equ	0xFE2
 10030                           fsr1l	equ	0xFE1
 10031                           bsr	equ	0xFE0
 10032                           indf2	equ	0xFDF
 10033                           postinc2	equ	0xFDE
 10034                           postdec2	equ	0xFDD
 10035                           fsr2h	equ	0xFDA
 10036                           fsr2l	equ	0xFD9
 10037                           status	equ	0xFD8


Data Sizes:
    Strings     0
    Constant    0
    Data        1
    BSS         597
    Persistent  2
    Stack       0

Auto Spaces:
    Space          Size  Autos    Used
    COMRAM           95     73      81
    BANK0           160     70     110
    BANK1           256     33     171
    BANK2           256    109     247
    BANK3           256      0     138
    BANK4           256      0     138
    BANK5           256      0       0
    BANK6           256      0       0
    BANK7           256      0       0
    BANK8           256      0       0
    BANK9           256      0       0
    BANK10          256      0       0
    BANK11          256      0       0
    BANK12          256      0       0
    BANK13          256      0       0
    BANK14          192      0       0

Pointer List with Targets:

    timer1_lthread@msgbuffer	PTR unsigned char  size(2) Largest target is 15
		 -> main@msgbuffer(BANK2[15]), 

    timer0_lthread@tptr	PTR struct __timer0_thread_struct size(2) Largest target is 2
		 -> main@t0thread_data(BANK2[2]), 

    memcpy@d1	PTR void  size(2) Largest target is 138
		 -> FromMainLow_MQ.queue(BANK3[136]), FromMainHigh_MQ.queue(BANK4[136]), ToMainHigh_MQ.queue(BANK2[136]), ToMainLow_MQ.queue(BANK1[136]), 
		 -> NULL(NULL[0]), timer0_int_handler@val(BANK0[2]), uart_transmit_interrupt_handler@data(COMRAM[14]), FromMainHigh_MQ(BANK4[138]), 
		 -> FromMainLow_MQ(BANK3[138]), ToMainHigh_MQ(BANK2[138]), ToMainLow_MQ(BANK1[138]), main@msgbuffer(BANK2[15]), 
		 -> main@ic(BANK2[38]), 

    memcpy@d	PTR unsigned char  size(2) Largest target is 138
		 -> FromMainLow_MQ.queue(BANK3[136]), FromMainHigh_MQ.queue(BANK4[136]), ToMainHigh_MQ.queue(BANK2[136]), ToMainLow_MQ.queue(BANK1[136]), 
		 -> NULL(NULL[0]), timer0_int_handler@val(BANK0[2]), uart_transmit_interrupt_handler@data(COMRAM[14]), FromMainHigh_MQ(BANK4[138]), 
		 -> FromMainLow_MQ(BANK3[138]), ToMainHigh_MQ(BANK2[138]), ToMainLow_MQ(BANK1[138]), main@msgbuffer(BANK2[15]), 
		 -> main@ic(BANK2[38]), 

    memcpy@s1	PTR const void  size(2) Largest target is 138
		 -> ToMainLow_MQ.data(BANK1[14]), ToMainHigh_MQ.data(BANK2[14]), FromMainLow_MQ.data(BANK3[14]), FromMainHigh_MQ.data(BANK4[14]), 
		 -> ToMainLow_MQ.queue.data(BANK1[14]), ToMainHigh_MQ.queue.data(BANK2[14]), FromMainHigh_MQ.queue.data(BANK4[14]), FromMainLow_MQ.queue.data(BANK3[14]), 
		 -> NULL(NULL[0]), timer0_int_handler@val(BANK0[2]), timer1_lthread@i2c_msg(BANK1[14]), uart_receive_interrupt_handler@message_count(COMRAM[1]), 
		 -> uart_receive_interrupt_handler@bad_checksum_message(COMRAM[3]), uart_receive_interrupt_handler@gooey_uart_center(COMRAM[14]), uart_receive_interrupt_handler@bad_counter_id(COMRAM[2]), uart_receive_interrupt_handler@bad_end_id(COMRAM[1]), 
		 -> uart_receive_interrupt_handler@bad_start_id(COMRAM[1]), FromMainHigh_MQ(BANK4[138]), FromMainLow_MQ(BANK3[138]), ToMainHigh_MQ(BANK2[138]), 
		 -> ToMainLow_MQ(BANK1[138]), main@uart_response(BANK2[14]), main@sensor_data(BANK2[14]), main@ic(BANK2[38]), 
		 -> main@t1thread_data(BANK2[17]), 

    memcpy@s	PTR const unsigned char  size(2) Largest target is 138
		 -> ToMainLow_MQ.data(BANK1[14]), ToMainHigh_MQ.data(BANK2[14]), FromMainLow_MQ.data(BANK3[14]), FromMainHigh_MQ.data(BANK4[14]), 
		 -> ToMainLow_MQ.queue.data(BANK1[14]), ToMainHigh_MQ.queue.data(BANK2[14]), FromMainHigh_MQ.queue.data(BANK4[14]), FromMainLow_MQ.queue.data(BANK3[14]), 
		 -> NULL(NULL[0]), timer0_int_handler@val(BANK0[2]), timer1_lthread@i2c_msg(BANK1[14]), uart_receive_interrupt_handler@message_count(COMRAM[1]), 
		 -> uart_receive_interrupt_handler@bad_checksum_message(COMRAM[3]), uart_receive_interrupt_handler@gooey_uart_center(COMRAM[14]), uart_receive_interrupt_handler@bad_counter_id(COMRAM[2]), uart_receive_interrupt_handler@bad_end_id(COMRAM[1]), 
		 -> uart_receive_interrupt_handler@bad_start_id(COMRAM[1]), FromMainHigh_MQ(BANK4[138]), FromMainLow_MQ(BANK3[138]), ToMainHigh_MQ(BANK2[138]), 
		 -> ToMainLow_MQ(BANK1[138]), main@uart_response(BANK2[14]), main@sensor_data(BANK2[14]), main@ic(BANK2[38]), 
		 -> main@t1thread_data(BANK2[17]), 

    timer1_lthread@tptr	PTR struct __timer1_thread_struct size(2) Largest target is 17
		 -> main@t1thread_data(BANK2[17]), 

    init_timer1_lthread@tptr	PTR struct __timer1_thread_struct size(2) Largest target is 17
		 -> main@t1thread_data(BANK2[17]), 

    timer0_lthread@msgbuffer	PTR unsigned char  size(2) Largest target is 15
		 -> main@msgbuffer(BANK2[15]), 

    timer0_lthread@msgval	PTR unsigned int  size(2) Largest target is 15
		 -> main@msgbuffer(BANK2[15]), 

    uart_frame_message@inner	PTR unsigned char  size(2) Largest target is 14
		 -> uart_transmit_interrupt_handler@data(COMRAM[14]), 

    uart_frame_message@outer	PTR unsigned char  size(2) Largest target is 18
		 -> uart_transmit_interrupt_handler@message(BANK0[18]), 

    send_uart_message@message_ptr	PTR unsigned char  size(2) Largest target is 14
		 -> main@uart_response(BANK2[14]), main@sensor_data(BANK2[14]), 

    init_i2c@ic	PTR struct __i2c_comm size(2) Largest target is 38
		 -> main@ic(BANK2[38]), 

    i2c_master_send@msg	PTR unsigned char  size(2) Largest target is 17
		 -> timer1_lthread@i2c_msg(BANK1[14]), main@t1thread_data(BANK2[17]), 

    ic_ptr	PTR struct __i2c_comm size(2) Largest target is 38
		 -> NULL(NULL[0]), main@ic(BANK2[38]), 

    check_msg@qptr	PTR struct __msg_queue size(2) Largest target is 138
		 -> ToMainHigh_MQ(BANK2[138]), ToMainLow_MQ(BANK1[138]), 

    FromMainHigh_recvmsg@data	PTR void  size(2) Largest target is 38
		 -> NULL(NULL[0]), timer0_int_handler@val(BANK0[2]), main@ic(BANK2[38]), 

    FromMainHigh_recvmsg@msgtype	PTR unsigned char  size(2) Largest target is 2
		 -> timer0_int_handler@msgtype(BANK0[2]), i2c_int_handler@msg_to_send(BANK0[1]), 

    FromMainHigh_sendmsg@data	PTR void  size(2) Largest target is 17
		 -> timer1_lthread@i2c_msg(BANK1[14]), main@t1thread_data(BANK2[17]), 

    FromMainLow_recvmsg@data	PTR void  size(2) Largest target is 14
		 -> uart_transmit_interrupt_handler@data(COMRAM[14]), 

    FromMainLow_recvmsg@msgtype	PTR unsigned char  size(2) Largest target is 1
		 -> uart_transmit_interrupt_handler@msgtype(COMRAM[1]), 

    FromMainLow_sendmsg@data	PTR void  size(2) Largest target is 14
		 -> main@uart_response(BANK2[14]), main@sensor_data(BANK2[14]), 

    ToMainHigh_recvmsg@data	PTR void  size(2) Largest target is 15
		 -> main@msgbuffer(BANK2[15]), 

    ToMainHigh_recvmsg@msgtype	PTR unsigned char  size(2) Largest target is 1
		 -> main@msgtype(BANK2[1]), 

    ToMainHigh_sendmsg@data	PTR void  size(2) Largest target is 38
		 -> NULL(NULL[0]), timer0_int_handler@val(BANK0[2]), main@ic(BANK2[38]), 

    ToMainLow_recvmsg@data	PTR void  size(2) Largest target is 15
		 -> main@msgbuffer(BANK2[15]), 

    ToMainLow_recvmsg@msgtype	PTR unsigned char  size(2) Largest target is 1
		 -> main@msgtype(BANK2[1]), 

    ToMainLow_sendmsg@data	PTR void  size(2) Largest target is 14
		 -> NULL(NULL[0]), uart_receive_interrupt_handler@message_count(COMRAM[1]), uart_receive_interrupt_handler@bad_checksum_message(COMRAM[3]), uart_receive_interrupt_handler@gooey_uart_center(COMRAM[14]), 
		 -> uart_receive_interrupt_handler@bad_counter_id(COMRAM[2]), uart_receive_interrupt_handler@bad_end_id(COMRAM[1]), uart_receive_interrupt_handler@bad_start_id(COMRAM[1]), 

    recv_msg@msgtype	PTR unsigned char  size(2) Largest target is 2
		 -> timer0_int_handler@msgtype(BANK0[2]), uart_transmit_interrupt_handler@msgtype(COMRAM[1]), i2c_int_handler@msg_to_send(BANK0[1]), main@msgtype(BANK2[1]), 

    recv_msg@data	PTR void  size(2) Largest target is 38
		 -> NULL(NULL[0]), timer0_int_handler@val(BANK0[2]), uart_transmit_interrupt_handler@data(COMRAM[14]), main@msgbuffer(BANK2[15]), 
		 -> main@ic(BANK2[38]), 

    recv_msg@qmsg	PTR struct __msg size(2) Largest target is 138
		 -> FromMainLow_MQ.queue(BANK3[136]), FromMainHigh_MQ.queue(BANK4[136]), ToMainHigh_MQ.queue(BANK2[136]), ToMainLow_MQ.queue(BANK1[136]), 
		 -> FromMainHigh_MQ(BANK4[138]), FromMainLow_MQ(BANK3[138]), ToMainHigh_MQ(BANK2[138]), ToMainLow_MQ(BANK1[138]), 

    recv_msg@qptr	PTR struct __msg_queue size(2) Largest target is 138
		 -> FromMainHigh_MQ(BANK4[138]), FromMainLow_MQ(BANK3[138]), ToMainHigh_MQ(BANK2[138]), ToMainLow_MQ(BANK1[138]), 

    sp__memcpy	PTR void  size(2) Largest target is 138
		 -> FromMainLow_MQ.queue(BANK3[136]), FromMainHigh_MQ.queue(BANK4[136]), ToMainHigh_MQ.queue(BANK2[136]), ToMainLow_MQ.queue(BANK1[136]), 
		 -> NULL(NULL[0]), timer0_int_handler@val(BANK0[2]), uart_transmit_interrupt_handler@data(COMRAM[14]), FromMainHigh_MQ(BANK4[138]), 
		 -> FromMainLow_MQ(BANK3[138]), ToMainHigh_MQ(BANK2[138]), ToMainLow_MQ(BANK1[138]), main@msgbuffer(BANK2[15]), 
		 -> main@ic(BANK2[38]), 

    send_msg@data	PTR void  size(2) Largest target is 38
		 -> NULL(NULL[0]), timer0_int_handler@val(BANK0[2]), timer1_lthread@i2c_msg(BANK1[14]), uart_receive_interrupt_handler@message_count(COMRAM[1]), 
		 -> uart_receive_interrupt_handler@bad_checksum_message(COMRAM[3]), uart_receive_interrupt_handler@gooey_uart_center(COMRAM[14]), uart_receive_interrupt_handler@bad_counter_id(COMRAM[2]), uart_receive_interrupt_handler@bad_end_id(COMRAM[1]), 
		 -> uart_receive_interrupt_handler@bad_start_id(COMRAM[1]), main@uart_response(BANK2[14]), main@sensor_data(BANK2[14]), main@ic(BANK2[38]), 
		 -> main@t1thread_data(BANK2[17]), 

    send_msg@qmsg	PTR struct __msg size(2) Largest target is 138
		 -> FromMainLow_MQ.queue(BANK3[136]), FromMainHigh_MQ.queue(BANK4[136]), ToMainHigh_MQ.queue(BANK2[136]), ToMainLow_MQ.queue(BANK1[136]), 
		 -> FromMainHigh_MQ(BANK4[138]), FromMainLow_MQ(BANK3[138]), ToMainHigh_MQ(BANK2[138]), ToMainLow_MQ(BANK1[138]), 

    send_msg@qptr	PTR struct __msg_queue size(2) Largest target is 138
		 -> FromMainHigh_MQ(BANK4[138]), FromMainLow_MQ(BANK3[138]), ToMainHigh_MQ(BANK2[138]), ToMainLow_MQ(BANK1[138]), 

    init_queue@qptr	PTR struct __msg_queue size(2) Largest target is 138
		 -> FromMainHigh_MQ(BANK4[138]), FromMainLow_MQ(BANK3[138]), ToMainHigh_MQ(BANK2[138]), ToMainLow_MQ(BANK1[138]), 


Critical Paths under _main in COMRAM

    None.

Critical Paths under _InterruptHandlerHigh in COMRAM

    None.

Critical Paths under _InterruptHandlerLow in COMRAM

    _InterruptHandlerLow->_uart_receive_interrupt_handler
    _uart_transmit_interrupt_handler->_FromMainLow_recvmsg
    _FromMainLow_recvmsg->i1_recv_msg
    i1_recv_msg->i1_memcpy
    _uart_receive_interrupt_handler->_ToMainLow_sendmsg
    _timer1_int_handler->_ToMainLow_sendmsg
    _ToMainLow_sendmsg->i1_send_msg
    i1_send_msg->i1_memcpy

Critical Paths under _main in BANK0

    _main->_ToMainHigh_recvmsg
    _main->_ToMainLow_recvmsg
    _timer1_lthread->_FromMainHigh_sendmsg
    _i2c_master_send->_FromMainHigh_sendmsg
    _FromMainHigh_sendmsg->_send_msg
    _send_uart_message->_FromMainLow_sendmsg
    _FromMainLow_sendmsg->_send_msg
    _send_msg->_memcpy
    _init_queues->_init_queue
    _block_on_To_msgqueues->_in_main
    _in_main->_in_low_int
    _in_low_int->_in_high_int
    _ToMainLow_recvmsg->_recv_msg
    _ToMainHigh_recvmsg->_recv_msg
    _recv_msg->_memcpy

Critical Paths under _InterruptHandlerHigh in BANK0

    _InterruptHandlerHigh->_i2c_int_handler
    _timer0_int_handler->_FromMainHigh_recvmsg
    _i2c_int_handler->_FromMainHigh_recvmsg
    _ToMainHigh_sendmsg->i2_send_msg
    i2_send_msg->i2_memcpy
    _FromMainHigh_recvmsg->i2_recv_msg
    i2_recv_msg->i2_memcpy
    _SleepIfOkay->i2_in_low_int
    i2_in_low_int->i2_in_high_int

Critical Paths under _InterruptHandlerLow in BANK0

    None.

Critical Paths under _main in BANK1

    _main->_timer1_lthread
    _timer1_lthread->_i2c_master_send
    _i2c_master_send->_FromMainHigh_sendmsg
    _FromMainHigh_sendmsg->_send_msg
    _send_uart_message->_FromMainLow_sendmsg
    _FromMainLow_sendmsg->_send_msg
    _ToMainLow_recvmsg->_recv_msg
    _ToMainHigh_recvmsg->_recv_msg

Critical Paths under _InterruptHandlerHigh in BANK1

    None.

Critical Paths under _InterruptHandlerLow in BANK1

    None.

Critical Paths under _main in BANK2

    None.

Critical Paths under _InterruptHandlerHigh in BANK2

    None.

Critical Paths under _InterruptHandlerLow in BANK2

    None.

Critical Paths under _main in BANK3

    None.

Critical Paths under _InterruptHandlerHigh in BANK3

    None.

Critical Paths under _InterruptHandlerLow in BANK3

    None.

Critical Paths under _main in BANK4

    None.

Critical Paths under _InterruptHandlerHigh in BANK4

    None.

Critical Paths under _InterruptHandlerLow in BANK4

    None.

Critical Paths under _main in BANK5

    None.

Critical Paths under _InterruptHandlerHigh in BANK5

    None.

Critical Paths under _InterruptHandlerLow in BANK5

    None.

Critical Paths under _main in BANK6

    None.

Critical Paths under _InterruptHandlerHigh in BANK6

    None.

Critical Paths under _InterruptHandlerLow in BANK6

    None.

Critical Paths under _main in BANK7

    None.

Critical Paths under _InterruptHandlerHigh in BANK7

    None.

Critical Paths under _InterruptHandlerLow in BANK7

    None.

Critical Paths under _main in BANK8

    None.

Critical Paths under _InterruptHandlerHigh in BANK8

    None.

Critical Paths under _InterruptHandlerLow in BANK8

    None.

Critical Paths under _main in BANK9

    None.

Critical Paths under _InterruptHandlerHigh in BANK9

    None.

Critical Paths under _InterruptHandlerLow in BANK9

    None.

Critical Paths under _main in BANK10

    None.

Critical Paths under _InterruptHandlerHigh in BANK10

    None.

Critical Paths under _InterruptHandlerLow in BANK10

    None.

Critical Paths under _main in BANK11

    None.

Critical Paths under _InterruptHandlerHigh in BANK11

    None.

Critical Paths under _InterruptHandlerLow in BANK11

    None.

Critical Paths under _main in BANK12

    None.

Critical Paths under _InterruptHandlerHigh in BANK12

    None.

Critical Paths under _InterruptHandlerLow in BANK12

    None.

Critical Paths under _main in BANK13

    None.

Critical Paths under _InterruptHandlerHigh in BANK13

    None.

Critical Paths under _InterruptHandlerLow in BANK13

    None.

Critical Paths under _main in BANK14

    None.

Critical Paths under _InterruptHandlerHigh in BANK14

    None.

Critical Paths under _InterruptHandlerLow in BANK14

    None.

Call Graph Tables:

 ---------------------------------------------------------------------------------
 (Depth) Function   	        Calls       Base Space   Used Autos Params    Refs
 ---------------------------------------------------------------------------------
 (0) _main                                               112   112      0   18322
                                              0 BANK2    109   109      0
                         _OpenTimer0
                         _OpenTimer1
                 _ToMainHigh_recvmsg
                  _ToMainLow_recvmsg
                               _blip
                              _blip1
                              _blip2
                              _blip3
                              _blip4
              _block_on_To_msgqueues
                    _debug_configure
                  _enable_interrupts
               _i2c_configure_master
                           _init_i2c
                        _init_queues
                _init_timer1_lthread
                  _send_uart_message
                     _timer0_lthread
                     _timer1_lthread
                     _uart_configure
 ---------------------------------------------------------------------------------
 (1) _uart_configure                                       0     0      0       0
 ---------------------------------------------------------------------------------
 (1) _timer1_lthread                                      23    15      8    6358
                                             10 BANK1     23    15      8
               _FromMainHigh_sendmsg
                            ___lwmod
                             _blink0
                    _i2c_master_send
 ---------------------------------------------------------------------------------
 (2) _i2c_master_send                                      4     2      2    2833
                                              6 BANK1      4     2      2
               _FromMainHigh_sendmsg
 ---------------------------------------------------------------------------------
 (3) _FromMainHigh_sendmsg                                 4     1      3    2463
                                             67 BANK0      3     0      3
                                              5 BANK1      1     1      0
                           _send_msg
 ---------------------------------------------------------------------------------
 (2) _blink0                                               0     0      0       0
 ---------------------------------------------------------------------------------
 (2) ___lwmod                                              5     1      4     302
                                             50 BANK0      5     1      4
 ---------------------------------------------------------------------------------
 (1) _timer0_lthread                                      10     2      8     342
                                             50 BANK0     10     2      8
 ---------------------------------------------------------------------------------
 (1) _send_uart_message                                    3     1      2    2882
                                              6 BANK1      3     1      2
                _FromMainLow_sendmsg
 ---------------------------------------------------------------------------------
 (2) _FromMainLow_sendmsg                                  4     1      3    2309
                                             67 BANK0      3     0      3
                                              5 BANK1      1     1      0
                           _send_msg
 ---------------------------------------------------------------------------------
 (4) _send_msg                                            12     6      6    2062
                                             60 BANK0      7     1      6
                                              0 BANK1      5     5      0
                             _memcpy
 ---------------------------------------------------------------------------------
 (1) _init_timer1_lthread                                  2     0      2     108
                                             50 BANK0      2     0      2
 ---------------------------------------------------------------------------------
 (1) _init_queues                                          0     0      0     500
                         _init_queue
 ---------------------------------------------------------------------------------
 (2) _init_queue                                           3     1      2     500
                                             50 BANK0      3     1      2
 ---------------------------------------------------------------------------------
 (1) _init_i2c                                             2     0      2     108
                                             50 BANK0      2     0      2
 ---------------------------------------------------------------------------------
 (1) _i2c_configure_master                                 1     1      0      31
                                             50 BANK0      1     1      0
 ---------------------------------------------------------------------------------
 (1) _enable_interrupts                                    0     0      0       0
 ---------------------------------------------------------------------------------
 (1) _debug_configure                                      0     0      0       0
 ---------------------------------------------------------------------------------
 (1) _block_on_To_msgqueues                                0     0      0     331
                        _Delay1KTCYx
                          _check_msg
                            _in_main
 ---------------------------------------------------------------------------------
 (2) _in_main                                              2     0      2       0
                                             54 BANK0      2     0      2
                        _in_high_int
                         _in_low_int
 ---------------------------------------------------------------------------------
 (3) _in_low_int                                           2     0      2       0
                                             52 BANK0      2     0      2
                        _in_high_int
 ---------------------------------------------------------------------------------
 (4) _in_high_int                                          2     0      2       0
                                             50 BANK0      2     0      2
 ---------------------------------------------------------------------------------
 (2) _check_msg                                            3     1      2     300
                                             50 BANK0      3     1      2
 ---------------------------------------------------------------------------------
 (2) _Delay1KTCYx                                          1     1      0      31
                                             50 BANK0      1     1      0
 ---------------------------------------------------------------------------------
 (1) _blip4                                                0     0      0       0
 ---------------------------------------------------------------------------------
 (1) _blip3                                                0     0      0       0
 ---------------------------------------------------------------------------------
 (1) _blip2                                                0     0      0       0
 ---------------------------------------------------------------------------------
 (1) _blip1                                                0     0      0       0
 ---------------------------------------------------------------------------------
 (1) _blip                                                 0     0      0       0
 ---------------------------------------------------------------------------------
 (1) _ToMainLow_recvmsg                                    5     1      4    2340
                                             69 BANK0      1     1      0
                                              5 BANK1      4     0      4
                           _recv_msg
 ---------------------------------------------------------------------------------
 (1) _ToMainHigh_recvmsg                                   5     1      4    2340
                                             69 BANK0      1     1      0
                                              5 BANK1      4     0      4
                           _recv_msg
 ---------------------------------------------------------------------------------
 (2) _recv_msg                                            14     7      7    2093
                                             60 BANK0      9     2      7
                                              0 BANK1      5     5      0
                             _memcpy
 ---------------------------------------------------------------------------------
 (5) _memcpy                                              10     4      6     636
                                             50 BANK0     10     4      6
 ---------------------------------------------------------------------------------
 (1) _OpenTimer1                                           3     2      1     170
                                             50 BANK0      3     2      1
 ---------------------------------------------------------------------------------
 (1) _OpenTimer0                                           1     1      0      62
                                             50 BANK0      1     1      0
 ---------------------------------------------------------------------------------
 Estimated maximum stack depth 5
 ---------------------------------------------------------------------------------
 (Depth) Function   	        Calls       Base Space   Used Autos Params    Refs
 ---------------------------------------------------------------------------------
 (6) _InterruptHandlerLow                                 17    17      0    7458
                                             56 COMRAM    17    17      0
                 _timer1_int_handler
     _uart_receive_interrupt_handler
    _uart_transmit_interrupt_handler
                            i1_blip1
 ---------------------------------------------------------------------------------
 (7) i1_blip1                                              0     0      0       0
 ---------------------------------------------------------------------------------
 (7) _uart_transmit_interrupt_handler                     16    16      0    2128
                                             29 COMRAM    16    16      0
                _FromMainLow_recvmsg
                 _uart_frame_message
 ---------------------------------------------------------------------------------
 (8) _uart_frame_message                                   8     4      4     550
                                              0 COMRAM     8     4      4
 ---------------------------------------------------------------------------------
 (8) _FromMainLow_recvmsg                                  5     1      4    1276
                                             24 COMRAM     5     1      4
                         i1_recv_msg
 ---------------------------------------------------------------------------------
 (9) i1_recv_msg                                          14     7      7    1029
                                             10 COMRAM    14     7      7
                           i1_memcpy
 ---------------------------------------------------------------------------------
 (7) _uart_receive_interrupt_handler                      30    30      0    3030
                                             26 COMRAM    30    30      0
                  _ToMainLow_sendmsg
                            i1_blip2
                            i1_blip3
 ---------------------------------------------------------------------------------
 (8) i1_blip3                                              0     0      0       0
 ---------------------------------------------------------------------------------
 (8) i1_blip2                                              0     0      0       0
 ---------------------------------------------------------------------------------
 (7) _timer1_int_handler                                   2     2      0    2300
                                             26 COMRAM     2     2      0
                         _ReadTimer1
                  _ToMainLow_sendmsg
                        _WriteTimer1
 ---------------------------------------------------------------------------------
 (8) _WriteTimer1                                          4     2      2      98
                                              0 COMRAM     4     2      2
 ---------------------------------------------------------------------------------
 (8) _ToMainLow_sendmsg                                    4     1      3    2169
                                             22 COMRAM     4     1      3
                         i1_send_msg
 ---------------------------------------------------------------------------------
 (9) i1_send_msg                                          12     6      6     998
                                             10 COMRAM    12     6      6
                           i1_memcpy
 ---------------------------------------------------------------------------------
 (10) i1_memcpy                                           10     4      6     384
                                              0 COMRAM    10     4      6
 ---------------------------------------------------------------------------------
 (8) _ReadTimer1                                           4     2      2      30
                                              0 COMRAM     4     2      2
 ---------------------------------------------------------------------------------
 Estimated maximum stack depth 10
 ---------------------------------------------------------------------------------
 (Depth) Function   	        Calls       Base Space   Used Autos Params    Refs
 ---------------------------------------------------------------------------------
 (11) _InterruptHandlerHigh                               14    14      0    6597
                                             36 BANK0     14    14      0
                        _SleepIfOkay
                    _i2c_int_handler
                 _timer0_int_handler
 ---------------------------------------------------------------------------------
 (12) _timer0_int_handler                                  6     6      0    3287
                                             29 BANK0      6     6      0
               _FromMainHigh_recvmsg
                 _ToMainHigh_sendmsg
                        _WriteTimer0
 ---------------------------------------------------------------------------------
 (13) _WriteTimer0                                         4     2      2     132
                                              0 BANK0      4     2      2
 ---------------------------------------------------------------------------------
 (12) _i2c_int_handler                                     8     8      0    3214
                                             29 BANK0      7     7      0
               _FromMainHigh_recvmsg
                 _ToMainHigh_sendmsg
 ---------------------------------------------------------------------------------
 (13) _ToMainHigh_sendmsg                                  4     1      3    1553
                                             22 BANK0      4     1      3
                         i2_send_msg
 ---------------------------------------------------------------------------------
 (14) i2_send_msg                                         12     6      6     998
                                             10 BANK0     12     6      6
                           i2_memcpy
 ---------------------------------------------------------------------------------
 (13) _FromMainHigh_recvmsg                                5     1      4    1430
                                             24 BANK0      5     1      4
                         i2_recv_msg
 ---------------------------------------------------------------------------------
 (14) i2_recv_msg                                         14     7      7    1029
                                             10 BANK0     14     7      7
                           i2_memcpy
 ---------------------------------------------------------------------------------
 (15) i2_memcpy                                           10     4      6     384
                                              0 BANK0     10     4      6
 ---------------------------------------------------------------------------------
 (12) _SleepIfOkay                                         0     0      0      96
                   _enter_sleep_mode
                        i2_check_msg
                      i2_in_high_int
                       i2_in_low_int
 ---------------------------------------------------------------------------------
 (13) i2_in_low_int                                        2     0      2       0
                                              2 BANK0      2     0      2
                      i2_in_high_int
 ---------------------------------------------------------------------------------
 (14) i2_in_high_int                                       2     0      2       0
                                              0 BANK0      2     0      2
 ---------------------------------------------------------------------------------
 (13) i2_check_msg                                         3     1      2      96
                                              0 BANK0      3     1      2
 ---------------------------------------------------------------------------------
 (13) _enter_sleep_mode                                    0     0      0       0
 ---------------------------------------------------------------------------------
 Estimated maximum stack depth 15
 ---------------------------------------------------------------------------------

 Call Graph Graphs:

 _main (ROOT)
   _OpenTimer0
   _OpenTimer1
   _ToMainHigh_recvmsg
     _recv_msg
       _memcpy
   _ToMainLow_recvmsg
     _recv_msg
       _memcpy
   _blip
   _blip1
   _blip2
   _blip3
   _blip4
   _block_on_To_msgqueues
     _Delay1KTCYx
     _check_msg
     _in_main
       _in_high_int
       _in_low_int
         _in_high_int
   _debug_configure
   _enable_interrupts
   _i2c_configure_master
   _init_i2c
   _init_queues
     _init_queue
   _init_timer1_lthread
   _send_uart_message
     _FromMainLow_sendmsg
       _send_msg
         _memcpy
   _timer0_lthread
   _timer1_lthread
     _FromMainHigh_sendmsg
       _send_msg
         _memcpy
     ___lwmod
     _blink0
     _i2c_master_send
       _FromMainHigh_sendmsg
         _send_msg
           _memcpy
   _uart_configure

 _InterruptHandlerLow (ROOT)
   _timer1_int_handler
     _ReadTimer1
     _ToMainLow_sendmsg
       i1_send_msg
         i1_memcpy
     _WriteTimer1
   _uart_receive_interrupt_handler
     _ToMainLow_sendmsg
       i1_send_msg
         i1_memcpy
     i1_blip2
     i1_blip3
   _uart_transmit_interrupt_handler
     _FromMainLow_recvmsg
       i1_recv_msg
         i1_memcpy
     _uart_frame_message
   i1_blip1

 _InterruptHandlerHigh (ROOT)
   _SleepIfOkay
     _enter_sleep_mode
     i2_check_msg
     i2_in_high_int
     i2_in_low_int
       i2_in_high_int
   _i2c_int_handler
     _FromMainHigh_recvmsg
       i2_recv_msg
         i2_memcpy
     _ToMainHigh_sendmsg
       i2_send_msg
         i2_memcpy
   _timer0_int_handler
     _FromMainHigh_recvmsg
       i2_recv_msg
         i2_memcpy
     _ToMainHigh_sendmsg
       i2_send_msg
         i2_memcpy
     _WriteTimer0

 Address spaces:
Name               Size   Autos  Total    Cost      Usage
BIGRAM             EBF      0       0      35        0.0%
BITBANK13          100      0       0      31        0.0%
BANK13             100      0       0      32        0.0%
BITBANK12          100      0       0      29        0.0%
BANK12             100      0       0      30        0.0%
BITBANK11          100      0       0      27        0.0%
BANK11             100      0       0      28        0.0%
BITBANK10          100      0       0      25        0.0%
BANK10             100      0       0      26        0.0%
BITBANK9           100      0       0      23        0.0%
BANK9              100      0       0      24        0.0%
BITBANK8           100      0       0      21        0.0%
BANK8              100      0       0      22        0.0%
BITBANK7           100      0       0      19        0.0%
BANK7              100      0       0      20        0.0%
BITBANK6           100      0       0      17        0.0%
BANK6              100      0       0      18        0.0%
BITBANK5           100      0       0      15        0.0%
BANK5              100      0       0      16        0.0%
BITBANK4           100      0       0      13        0.0%
BANK4              100      0      8A      14       53.9%
BITBANK3           100      0       0      11        0.0%
BANK3              100      0      8A      12       53.9%
BITBANK2           100      0       0       9        0.0%
BANK2              100     6D      F7      10       96.5%
BITBANK1           100      0       0       7        0.0%
BANK1              100     21      AB       8       66.8%
BITBANK14           C0      0       0      33        0.0%
BANK14              C0      0       0      34        0.0%
BITBANK0            A0      0       0       4        0.0%
BANK0               A0     46      6E       5       68.8%
BITCOMRAM           5F      0       0       0        0.0%
COMRAM              5F     49      51       1       85.3%
BITSFR_2             0      0       0      40        0.0%
SFR_2                0      0       0      40        0.0%
BITSFR_1             0      0       0      40        0.0%
SFR_1                0      0       0      40        0.0%
BITSFR               0      0       0      40        0.0%
SFR                  0      0       0      40        0.0%
STACK                0      0       0       2        0.0%
NULL                 0      0       0       0        0.0%
ABS                  0      0     375       6        0.0%
DATA                 0      0     375       3        0.0%
CODE                 0      0       0       0        0.0%


Microchip Technology PIC18 Macro Assembler V1.32 build 58300 
Symbol Table                                                                                   Mon Nov 03 19:04:58 2014

                                 ??_debug_configure 0092                            _MQ_Main_Willing_to_block 00B8  
                                       _SSPSTATbits 000FC7                  uart_receive_interrupt_handler@done 004B  
                         __end_of_ToMainLow_recvmsg 1836                                                  bsr 000FE0  
                         __end_of_ToMainLow_sendmsg 1B40                                        __CFG_CP0$OFF 000000  
                                 i2recv_msg@msgtype 006D                                   i2recv_msg@tlength 0074  
                              ?_FromMainLow_recvmsg 0019                                                 l131 0656  
                                               l133 0684                                                 l565 1AF2  
                                               l566 1AF4                                                 l593 1920  
                                               l594 1922                                                 l836 1B80  
                              ?_FromMainLow_sendmsg 00A3                                __size_of_WriteTimer0 0012  
                              __size_of_WriteTimer1 0012                                    ??_uart_configure 0092  
                                    _FromMainLow_MQ 0300                                                 prod 000FF3  
                                               wreg 000FE8                                          _TXSTA1bits 000FAD  
                                      __CFG_IESO$ON 000000                                        ?_in_high_int 0092  
                                   ReadTimer1@timer 0003                                 i2recv_msg@maxlength 006C  
                                              l1142 15B8                                                l4131 0B22  
                                              l4123 0AD8                                                l3405 1714  
                                              l4117 0AB8                                                l3423 0E44  
                                              l4311 0798                                                l4303 0774  
                                              l3601 18E0                                                l4091 155A  
                                              l4331 080E                                                l4323 07D8  
                                              l4085 1538                                                l3613 14D8  
                                              l4317 07B8                                                l4261 0618  
                                              l4253 05CC                                                l4245 0596  
                                              l4237 0564                                                l3631 0C18  
                                              l3471 17EA                                                l3463 17CC  
                                              l4079 1516                                                l4351 086C  
                                              l4255 0610                                                l4271 0674  
                                              l4337 0816                                                l4329 07F8  
                                              l4347 085A                                                l4275 068A  
                                              l4277 06A2                                                l3399 16F4  
                                              l3647 0CD2                                                l4295 0710  
                                              l4297 0754                                                l3691 1574  
                                              l3693 1580                                                l3695 1586  
                                              l3699 15AA                                                _LATB 000F8A  
                                              u2877 1B82                                                i1l59 0088  
                                       main@myByte1 0299                                         main@myByte2 029A  
                                   _FromMainHigh_MQ 0400                                                _blip 1C26  
                            ?_block_on_To_msgqueues 0001                                          i1_recv_msg 10B0  
                                              _main 04D4                                                fsr0h 000FEA  
                                              fsr1h 000FE2                                                fsr0l 000FE9  
                                              fsr2h 000FDA                                                indf1 000FE7  
                                              fsr1l 000FE1                                                indf2 000FDF  
                                              fsr2l 000FD9                              __CFG_DSWDTOSC$T1OSCREF 000000  
                                       main@msgtype 02BE                                          i1_send_msg 1182  
                                              pclat 000FFA                                     __end_ofi1_blip1 1C36  
                                   __end_ofi1_blip2 1C46                                     __end_ofi1_blip3 1C3E  
                                       i2_check_msg 1992                                                prodh 000FF4  
                                              prodl 000FF3                                                start 00CE  
                                        i2_recv_msg 0CD6                                          i2_send_msg 0EE2  
                     __size_of_i2c_configure_master 0060                           ToMainHigh_recvmsg@msgtype 018F  
                                    send_msg@length 009E                         __size_of_timer0_int_handler 006E  
                                       _Delay1KTCYx 1B7C                                       __CFG_PLLDIV$3 000000  
            uart_receive_interrupt_handler@checksum 0035                               ??_FromMainLow_recvmsg 001D  
                                             ?_blip 0001                               ??_FromMainLow_sendmsg 00A6  
                                             ?_main 0001                                               _T0CON 000FD5  
                                             _T1CON 000FCD                                               i1l432 0A30  
                                   __end_of___lwmod 15C2                                          i1memcpy@d1 0001  
                                             i2l325 04CE                                               i2l326 0182  
                                             i2l351 0356                                               i2l327 018C  
                                             i2l352 0372                                               i2l336 0232  
                                             i2l353 03A0                                               i2l346 031E  
                                             i2l355 0420                                               i2l347 0336  
                                             i2l357 0458                                               i2l359 0470  
                                        i1memcpy@s1 0003                         FromMainHigh_recvmsg@msgtype 0078  
                                             _TMR0H 000FD7                                               _TMR1H 000FCF  
                                             _TMR0L 000FD6                                               _TMR1L 000FCE  
                                             _TMR3L 000F7A                                               _TRISB 000F93  
                                             _TRISD 000F95                                          i2memcpy@d1 0060  
                                    __CFG_FCMEN$OFF 000000                                          i2memcpy@s1 0062  
                                      ?_init_queues 0001                           __size_of_enter_sleep_mode 0006  
                                   __end_of_in_main 18EE                                               _blip1 1C1E  
                                             _blip2 1C16                                               _blip3 1C0E  
                                             _blip4 1C06         uart_receive_interrupt_handler@message_count 0034  
                        ToMainLow_recvmsg@maxlength 00A5                                               main@i 02BC  
                                             main@z 02BF                             timer0_lthread@msgbuffer 0098  
                                    __CFG_T1DIG$OFF 000000                                               tablat 000FF5  
                           uart_frame_message@inner 0001                                               status 000FD8  
                           uart_frame_message@outer 0003                                    __end_ofi1_memcpy 17BA  
                                  __end_ofi2_memcpy 177A                                     __initialization 1438  
                                      __end_of_blip 1C2E                                        __end_of_main 08A2  
                                        _ReadTimer1 1BA2                         __size_of_timer1_int_handler 002C  
                        __size_of_ToMainLow_recvmsg 003E                          __size_of_ToMainLow_sendmsg 0024  
                     __size_of_FromMainHigh_recvmsg 0036                               __size_ofi2_in_low_int 003E  
                                    __CFG_OSC$HSPLL 000000                       __size_of_FromMainHigh_sendmsg 002E  
                                            ??_blip 0092                                              ??_main 00A6  
                                   send_msg@msgtype 009F                                       __activetblptr 000002  
                                   send_msg@tlength 018A                          FromMainLow_sendmsg@msgtype 00A3  
                                            ?_blip1 0001                                              ?_blip2 0001  
                                            ?_blip3 0001                                              ?_blip4 0001  
                                            _T1GCON 000F9A                                           ??i1_blip1 0001  
                                         ??i1_blip2 0001                                           ??i1_blip3 0001  
                                            i1l2641 1054                                              i1l3443 17A8  
                                            i1l2643 1082                                              i1l2635 1006  
                                            i1l4171 0074                                              i1l3437 178C  
                                            i1l4165 006A                                              i1l2639 1034  
                                            i1l4177 007E                                              i1l3491 11BA  
                                            i1l3539 10F6                                              i1l3555 117E  
                                            i1l3903 09E8                                              i1l3841 08E8  
                                            i1l3923 0A46                                              i1l3925 0A4A  
                                            i1l3861 0922                                              i1l3847 08EE  
                                            i1l3863 0924                                              i1l3849 08F4  
                                            i1l3937 125A                                          _OpenTimer0 1AD2  
                                        _OpenTimer1 18EE                                              i1l3965 12AA  
                                    __CFG_WDTEN$OFF 000000                                              i1l3895 09BC  
                                            i1l3879 095E                                              i2l3515 0F30  
                                            i2l4155 1310                                              i2l3453 1764  
                                            i2l4149 1306                                              i2l3447 1744  
                                            i2l2817 162A                                              i2l3571 0D36  
                                            i2l3731 01A8                                              i2l3741 01FE  
                                            i2l3709 00E4                                              i2l2687 18A4  
                                            i2l2679 1886                                              i2l3735 01BE  
                                            i2l3807 048A                                              i2l3761 02C2  
                                            i2l3729 0192                                              i2l3587 0DF0  
                                            i2l3755 02B6                                              i2l3763 02D4  
                                            i2l3739 01D6                                              i2l3757 02BA  
                                            i2l3767 0308                                              _RCREG1 000FAF  
                                     ??_SleepIfOkay 0064                                              _OSCCON 000FD3  
                                            _SPBRG1 000FB0                                         ?i1_recv_msg 000B  
                                            _SSPADD 000FC8                                      __CFG_WPCFG$OFF 000000  
                                            _SSPBUF 000FC9                                              _TXREG1 000FAE  
                                       ?i1_send_msg 000B                                  timer0_lthread@tptr 0092  
                                    __CFG_WPDIS$OFF 000000                             FromMainLow_recvmsg@data 001B  
                                       ?i2_recv_msg 006A                                        i2_in_low_int 1874  
                                       ?i2_send_msg 006A                                      __CFG_XINST$OFF 000000  
                        __end_of_uart_frame_message 10B0                    ??_uart_receive_interrupt_handler 001B  
                   ?_uart_receive_interrupt_handler 0001                                     _i2c_int_handler 00D2  
                                            _blink0 1C4C                                     _i2c_master_send 19C4  
                                  OpenTimer0@config 0092                                              _ic_ptr 00CC  
                                         ??___lwmod 0096                                       main@msgbuffer 02AB  
                                  __end_of_init_i2c 13CA                                    OpenTimer1@config 0094  
                                            _memcpy 16DA                                              clear_0 143E  
                                            clear_1 144A                                              clear_2 1456  
                                            clear_3 1462                                              clear_4 146E  
                                            clear_5 147A                                              main@ic 02D1  
                                  __end_of_recv_msg 0CD6       uart_transmit_interrupt_handler@message_status 002D  
                                         ??_in_main 0098                                    __end_of_send_msg 0EE2  
                                      __pdataCOMRAM 0051                               timer0_int_handler@val 0081  
                                            tblptrh 000FF7                                              tblptrl 000FF6  
                                            tblptru 000FF8                uart_receive_interrupt_handler@msg_id 0036  
                                       init_queue@i 0094                uart_receive_interrupt_handler@status 002B  
                          ToMainLow_recvmsg@msgtype 018F                                __size_of_in_high_int 0010  
                           FromMainLow_sendmsg@data 00A4                                     _debug_configure 1BF4  
              uart_transmit_interrupt_handler@index 0050                                          __accesstop 0060  
                           __end_of__initialization 1492                          __end_of_ToMainHigh_recvmsg 1874  
                        __end_of_ToMainHigh_sendmsg 1A7E                                 uart_frame_message@i 0008  
                                   __CFG_IOL1WAY$ON 000000                                __CFG_WPEND$PAGE_WPFP 000000  
                       __end_of_init_timer1_lthread 1B7C                                 __end_of_SleepIfOkay 1682  
                                    __pcstackCOMRAM 0001                              __size_ofi2_in_high_int 0010  
                                       ?_ReadTimer1 0001                                       __end_of_blip1 1C26  
                                     __end_of_blip2 1C1E                                       __end_of_blip3 1C16  
                                     __end_of_blip4 1C0E                     send_uart_message@message_q_code 0192  
                                __size_of_check_msg 0032                                     __CFG_DSWDTPS$G2 000000  
                           i2c_int_handler@err_2152 007F                           timer0_int_handler@msgtype 007F  
                               __size_ofi1_recv_msg 00D2                                 __size_ofi1_send_msg 00AA  
                                         ?i1_memcpy 0001                       __size_of_InterruptHandlerHigh 1346  
                       __end_of_InterruptHandlerLow 00CE                                           ?i2_memcpy 0060  
                                     _ToMainHigh_MQ 0200                                 __size_ofi2_recv_msg 011E  
                                  _enter_sleep_mode 1C46                                 __size_ofi2_send_msg 00EC  
                              timer1_lthread@length 0198                                             ??_blip1 0092  
                                           ??_blip2 0092                                             ??_blip3 0092  
                                           ??_blip4 0092                             i2c_int_handler@read_bit 0081  
                                     check_msg@qptr 0092                                timer1_lthread@retval 01AA  
                           ??_block_on_To_msgqueues 0098                                __size_of_init_queues 0058  
                                        __pbssBANK0 00A6                                          __pbssBANK1 0100  
                                        __pbssBANK2 0200                                          __pbssBANK3 0300  
                                        __pbssBANK4 0400                                         ?_OpenTimer0 0001  
                                       ?_OpenTimer1 0092                             __end_of_i2c_int_handler 04D4  
                                      ?i2_check_msg 0060                             __end_of_i2c_master_send 19F4  
                                timer1_lthread@tptr 0194                                             ?_blink0 0001  
                                 recv_msg@maxlength 009E                                     recv_msg@msgtype 009F  
                                   recv_msg@tlength 018B                                        ?_Delay1KTCYx 0001  
                                  WriteTimer0@timer 0062                                             ?_memcpy 0092  
                                  WriteTimer1@timer 0003                                       ??_WriteTimer0 0062  
                                     ??_WriteTimer1 0003                             __size_of_timer0_lthread 000E  
                           __size_of_timer1_lthread 0166                          timer1_lthread@move_counter 00B9  
                      __end_of_i2c_configure_master 1622                                          ??i1_memcpy 0007  
                                        ??i2_memcpy 0066                             __end_of_debug_configure 1BFE  
                                           _SPBRGH1 000F7F                                    i1send_msg@length 000D  
                                           _SSP1ADD 000FC8                                             _SSP1BUF 000FC9  
                                     i2_in_high_int 1BD6                                             _SSPCON1 000FC6  
                                           _SSPCON2 000FC5                                             _SSPSTAT 000FC7  
                                           i1_blip1 1C2E                                             i1_blip2 1C3E  
                                           i1_blip3 1C36                                 __size_of_ReadTimer1 0012  
                                 __end_of_check_msg 1992                                           ?_init_i2c 0092  
                                       _SleepIfOkay 1622                                   _send_uart_message 1AF8  
                                         ?_recv_msg 009C                                          _in_low_int 17BA  
                                           __Hparam 0000                                           ?_send_msg 009C  
                                           __Lparam 0000                                  ?_send_uart_message 0190  
         uart_receive_interrupt_handler@status_2584 002C                          __end_of_timer0_int_handler 1438  
                       __end_of_FromMainLow_recvmsg 1AD2                         __end_of_FromMainLow_sendmsg 1A50  
                                           ___lwmod 1562                                     __size_of_blink0 0004  
                                   __CFG_STVREN$OFF 000000                                 ??_send_uart_message 00A6  
                                           __pcinit 1438                                     __size_of_memcpy 0050  
                                        _init_queue 149C                                             __ramtop 0F00  
                               __size_of_OpenTimer0 0026                                 __size_of_OpenTimer1 003C  
                                           __ptext0 04D4                                             __ptext1 1B40  
                                           __ptext2 0A52                                             __ptext3 19C4  
                                           __ptext4 19F4                                             __ptext5 1C4C  
                                           __ptext6 1562                                             __ptext7 1BE6  
                                           __ptext8 1AF8                                             __ptext9 1A22  
                                         _T0CONbits 000FD5                                   OpenTimer1@config1 0092  
                                           _in_main 18B2                                           _T1CONbits 000FCD  
                               __end_of_WriteTimer0 1BC6                                 __end_of_WriteTimer1 1BA2  
                                    ?i2_in_high_int 0060                                             main@jjj 02BA  
                                    __pintcode_body 12D0                        __end_of_FromMainHigh_recvmsg 1960  
                              end_of_initialization 1492                             timer1_lthread@msgbuffer 019A  
                      __end_of_FromMainHigh_sendmsg 1A22                          FromMainHigh_sendmsg@length 018F  
                         __end_of_send_uart_message 1B1C                                             memcpy@d 0098  
                                           memcpy@n 0096                                             memcpy@s 009A  
                                        ??_init_i2c 0094                                        ??i1_recv_msg 0012  
                           __size_of_uart_configure 0020                                       __Lmediumconst 0000  
                                           int_func 12D0                                        ??i1_send_msg 0011  
          uart_receive_interrupt_handler@bad_end_id 0033          uart_receive_interrupt_handler@bad_start_id 0032  
                                  ?_i2c_int_handler 0001                                        ??i2_recv_msg 0071  
                                  ?_i2c_master_send 0190                                          ??_recv_msg 00A3  
                                      ??i2_send_msg 0070                                          ??_send_msg 00A2  
   uart_receive_interrupt_handler@gooey_uart_center 001D                          __end_of_timer1_int_handler 1AAA  
                                           postdec2 000FDD                                             postinc0 000FEE  
                                           postinc2 000FDE                           ToMainHigh_sendmsg@msgtype 0076  
                                         _PORTBbits 000F81                                    __CFG_DSBOREN$OFF 000000  
                                _uart_frame_message 0FCE                                  __end_ofi1_recv_msg 1182  
                                  __CFG_CPUDIV$OSC1 000000                                  __end_ofi1_send_msg 122C  
                       FromMainHigh_sendmsg@msgtype 00A3              __end_of_uart_receive_interrupt_handler 0A52  
           __size_of_uart_receive_interrupt_handler 01B0                      _uart_receive_interrupt_handler 08A2  
                                  ?_debug_configure 0001                                           _TRISBbits 000F93  
                                         _TRISCbits 000F94                                  __end_ofi2_recv_msg 0DF4  
                                __end_ofi2_send_msg 0FCE                                 ?_uart_frame_message 0001  
                     FromMainHigh_recvmsg@maxlength 007C                            timer1_int_handler@result 001B  
                                 __CFG_WPFP$PAGE_63 000000                                          main@length 02BD  
                                       ?_in_low_int 0094                               timer0_lthread@msgtype 0094  
                              _i2c_configure_master 15C2                                 __CFG_MSSP7B_EN$MSK7 000000  
                              __size_ofi2_check_msg 0032                            __end_of_enter_sleep_mode 1C4C  
                                      ??_ReadTimer1 0003                                ??_uart_frame_message 0005  
                                _ToMainHigh_recvmsg 1836                                           i1memcpy@d 0007  
                                _ToMainHigh_sendmsg 1A50                                           i1memcpy@n 0005  
                                         i1memcpy@s 0009                                         _BAUDCONbits 000F7E  
                                    __end_of_blink0 1C50                                       __pidataCOMRAM 1C50  
                                    _timer0_lthread 1BE6                                         ?_init_queue 0092  
                                         i2memcpy@d 0066                                         _WriteTimer0 1BB4  
                                       _WriteTimer1 1B90                                           i2memcpy@n 0064  
                                         i2memcpy@s 0068                                      _timer1_lthread 0A52  
                                    __end_of_memcpy 172A                                   _enable_interrupts 1BFE  
                              __size_of_Delay1KTCYx 0014                                    __CFG_DSWDTEN$OFF 000000  
                               ?_ToMainHigh_recvmsg 018F                                     ??i2_in_high_int 0062  
                               ?_ToMainHigh_sendmsg 0076                                  ?_enable_interrupts 0001  
                               start_initialization 1438                                       ??_in_high_int 0094  
      uart_receive_interrupt_handler@start_byte_bad 004F                                   __size_ofi1_memcpy 0040  
                             timer1_lthread@i2c_msg 019C                                   __size_ofi2_memcpy 0050  
                         FromMainLow_sendmsg@length 018F                                 ??_enable_interrupts 0092  
                                      ??_OpenTimer0 0092                                        ??_OpenTimer1 0093  
                    __size_of_block_on_To_msgqueues 0062                                  __end_of_ReadTimer1 1BB4  
                   uart_receive_interrupt_handler@i 0037                          __size_of_send_uart_message 0024  
                     __end_of_block_on_To_msgqueues 1562                                   main@uart_response 029D  
            uart_transmit_interrupt_handler@message 00BA                        __end_of_InterruptHandlerHigh 134E  
                                        init_i2c@ic 0092                                ??_ToMainHigh_recvmsg 00A5  
                              ??_ToMainHigh_sendmsg 0079              uart_transmit_interrupt_handler@msgtype 002C  
                             ?_i2c_configure_master 0001                              __end_of_timer0_lthread 1BF4  
                                          ??_blink0 0092                              __end_of_timer1_lthread 0BB8  
                                  __CFG_LPT1OSC$OFF 000000                           __end_of_enable_interrupts 1C06  
                                          ??_memcpy 0098                               timer1_lthread@msgtype 0196  
                              _FromMainHigh_recvmsg 192A  uart_receive_interrupt_handler@bad_checksum_message 002D  
               uart_receive_interrupt_handler@frame 00A6                 uart_receive_interrupt_handler@index 004D  
                              _FromMainHigh_sendmsg 19F4                 uart_receive_interrupt_handler@error 004C  
                      __size_of_init_timer1_lthread 001C                                  __end_of_OpenTimer0 1AF8  
                                __end_of_OpenTimer1 192A                                         __pbssCOMRAM 004A  
                       i2c_int_handler@command_byte 0080                                       ??_init_queues 0095  
                                     __pcstackBANK0 0060                                       __pcstackBANK1 018A  
                                     __pcstackBANK2 028A                                 __size_of_in_low_int 003E  
                                          ?i1_blip1 0001                                            ?i1_blip2 0001  
                                          ?i1_blip3 0001                                     Delay1KTCYx@unit 0092  
                          ToMainLow_sendmsg@msgtype 0017                        __size_of_InterruptHandlerLow 00B6  
                               __end_of_in_high_int 1BD6                                      _uart_configure 1B40  
                                      ?_SleepIfOkay 0001                               ToMainLow_recvmsg@data 0191  
                                      _ToMainLow_MQ 0100                                 __size_of_init_queue 0064  
                                         _check_msg 1960                                           __pnvBANK0 00CC  
                                 __size_of_init_i2c 007C                                        recv_msg@data 00A1  
                                      recv_msg@qmsg 018D                                        recv_msg@slot 018A  
                                      recv_msg@qptr 009C                                   __size_of_recv_msg 011E  
                                         __pintcode 0008                                   __size_of_send_msg 00EE  
                                   ?_timer0_lthread 0092                                            ?___lwmod 0092  
                             ?_FromMainHigh_recvmsg 0078                                     ?_timer1_lthread 0194  
                             ?_FromMainHigh_sendmsg 00A3                                         __pintcodelo 0018  
                            ToMainHigh_recvmsg@data 0191                          i2c_int_handler@msg_to_send 0082  
                                          ?_in_main 0096                                   WriteTimer0@timer0 0060  
                                _timer0_int_handler 13CA                          uart_frame_message@checksum 0007  
                                 WriteTimer1@timer1 0001                                __CFG_RTCOSC$T1OSCREF 000000  
                             ToMainLow_sendmsg@data 0018                                      __size_of_blip1 0008  
                                    __size_of_blip2 0008                                      __size_of_blip3 0008  
                                    __size_of_blip4 0008                              __end_of_uart_configure 1B60  
                               i1recv_msg@maxlength 000D                                 ?_timer0_int_handler 0001  
      uart_receive_interrupt_handler@bad_counter_id 0030                                 __end_of_init_queues 16DA  
                                          _LATBbits 000F8A                                            _LATDbits 000F8C  
                            ??_i2c_configure_master 0092                                     i2check_msg@qptr 0060  
                                        ?_check_msg 0092                                            _IPR1bits 000F9F  
                                          _IPR2bits 000FA2                                            _PIE1bits 000F9D  
                                     ?i2_in_low_int 0062                                            _PIR1bits 000F9E  
                                          _PIR2bits 000FA1                              ToMainHigh_sendmsg@data 0077  
                                          _RCONbits 000FD0                                    __CFG_WDTPS$32768 000000  
                                    i1recv_msg@data 0010                                ??_timer0_int_handler 007D  
                                    i1recv_msg@qmsg 0017                                      i1recv_msg@slot 0014  
                                    i1recv_msg@qptr 000B      uart_receive_interrupt_handler@received_counter 004E  
                             i2c_master_send@length 0193                        FromMainLow_recvmsg@maxlength 001D  
                        __size_of_enable_interrupts 0008                                   i1send_msg@msgtype 000E  
                                 i1send_msg@tlength 0012                          FromMainLow_recvmsg@msgtype 0019  
                      __size_of_FromMainLow_recvmsg 0028                        __size_of_FromMainLow_sendmsg 002E  
                              timer0_lthread@length 0096                                  _timer1_int_handler 1A7E  
                                          i1_memcpy 177A                                _InterruptHandlerHigh 0008  
                                          i2_memcpy 172A                                timer0_lthread@msgval 009A  
                          FromMainHigh_recvmsg@data 007A                                         _in_high_int 1BC6  
                                      send_msg@data 00A0                                        send_msg@qmsg 018D  
                                      send_msg@slot 018C                                        send_msg@qptr 009C  
                                   ?_uart_configure 0001                                 ?_timer1_int_handler 0001  
                                  __size_ofi1_blip1 0008                                    __size_ofi1_blip2 0008  
                                  __size_ofi1_blip3 0008                                      ??i2_in_low_int 0064  
                                          __Hparam0 0000                                        ??_in_low_int 0096  
                                          __Lparam0 0000                                   ?_enter_sleep_mode 0001  
                            ??_FromMainHigh_recvmsg 007C                              ??_FromMainHigh_sendmsg 00A6  
                              ??_timer1_int_handler 001B             __end_of_uart_transmit_interrupt_handler 12D0  
          __size_of_uart_transmit_interrupt_handler 00A4                   ??_uart_transmit_interrupt_handler 001E  
                  ?_uart_transmit_interrupt_handler 0001                     _uart_transmit_interrupt_handler 122C  
                          __size_of_i2c_int_handler 0402                                  ??_enter_sleep_mode 0060  
                          __size_of_i2c_master_send 0030                                    __size_of___lwmod 0060  
                                      ??_init_queue 0094                                        ?_WriteTimer0 0060  
                                      ?_WriteTimer1 0001                            FromMainHigh_sendmsg@data 00A4  
                           ToMainLow_sendmsg@length 001A                                   main@t0thread_data 029B  
                    uart_frame_message@sent_counter 004A                               ?_InterruptHandlerHigh 0001  
                                  __size_of_in_main 003C                 uart_transmit_interrupt_handler@data 001E  
               uart_transmit_interrupt_handler@done 0051                                   i2send_msg@msgtype 006D  
                       ToMainHigh_recvmsg@maxlength 00A5                                   i2send_msg@tlength 0071  
                           init_timer1_lthread@tptr 0092                                         _init_queues 1682  
                                __end_of_in_low_int 17F8                                            __ptext10 0DF4  
                                          __ptext11 1B60                                            __ptext20 17BA  
                                          __ptext12 1682                                            __ptext21 1BC6  
                                          __ptext13 149C                                          _T1GCONbits 000F9A  
                                          __ptext30 1836                                            __ptext22 1960  
                                          __ptext14 134E                                            __ptext31 0BB8  
                                          __ptext23 1B7C                                            __ptext15 15C2  
                                          __ptext40 10B0                                            __ptext32 16DA  
                                          __ptext24 1C06                                            __ptext16 1BFE  
                                          __ptext41 08A2                                            __ptext33 18EE  
                                          __ptext25 1C0E                                            __ptext17 1BF4  
                                          __ptext42 1C36                                            __ptext34 1AD2  
                                          __ptext26 1C16                                            __ptext18 1500  
                                          __ptext51 13CA                                            __ptext43 1C3E  
                                          __ptext27 1C1E                                            __ptext19 18B2  
                                          __ptext60 1874                                            __ptext52 1BB4  
                                          __ptext44 1A7E                                            __ptext36 1C2E  
                                          __ptext28 1C26                                            __ptext61 1BD6  
                                          __ptext53 00D2                                            __ptext45 1B90  
                                          __ptext37 122C                                            __ptext29 17F8  
                                          __ptext62 1992                                            __ptext54 1A50  
                                          __ptext46 1B1C                                            __ptext38 0FCE  
                                          __ptext63 1C46                                            __ptext55 0EE2  
                                          __ptext47 1182                                            __ptext39 1AAA  
                                          __ptext56 192A                                            __ptext48 177A  
                                          __ptext57 0CD6                                            __ptext49 1BA2  
                                          __ptext58 172A                                            __ptext59 1622  
                                      _SSP1CON1bits 000FC6                                        _SSP1CON2bits 000FC5  
                                    i1send_msg@data 000F                      i2c_configure_master@slave_addr 0092  
                                    i1send_msg@qmsg 0015                                      i1send_msg@slot 0014  
                                    i1send_msg@qptr 000B                            timer0_int_handler@length 007D  
                                          _init_i2c 134E                            __size_of_debug_configure 000A  
                               _init_timer1_lthread 1B60                                       __size_of_blip 0008  
                                     __size_of_main 03CE                                       ??i2_check_msg 0062  
                                 main@t1thread_data 02C0                                         ??_check_msg 0094  
                                __end_of_init_queue 1500                                __size_of_SleepIfOkay 0060  
                                          _recv_msg 0BB8                                            _send_msg 0DF4  
                                    init_queue@qptr 0092                                      i2recv_msg@data 006F  
                       __size_of_uart_frame_message 00E2                                      i2recv_msg@qmsg 0076  
                                     ??_Delay1KTCYx 0092                                      i2recv_msg@slot 0073  
                                    i2recv_msg@qptr 006A                                        _SSP1STATbits 000FC7  
                               _InterruptHandlerLow 0018                                ?_init_timer1_lthread 0092  
                                   main@sensor_data 028A                                         _OSCTUNEbits 000F9B  
                                        _INTCONbits 000FF2                                            memcpy@d1 0092  
                                          memcpy@s1 0094                               __end_ofi2_in_high_int 1BE6  
                                  i2send_msg@length 006C                                            intlevel1 0000  
                                          intlevel2 0000                                ?_InterruptHandlerLow 0001  
                      send_uart_message@message_ptr 0190                                    ___lwmod@dividend 0092  
                                        _RCSTA1bits 000FAC                               _block_on_To_msgqueues 1500  
                                  ??_timer0_lthread 009A                         __size_of_ToMainHigh_recvmsg 003E  
                       __size_of_ToMainHigh_sendmsg 002E                                          _OSCCONbits 000FD3  
                                  ??_timer1_lthread 00A6                                   i1recv_msg@msgtype 000E  
                                 i1recv_msg@tlength 0015                            ToMainHigh_sendmsg@length 0079  
                               __end_ofi2_check_msg 19C4                                  i2c_int_handler@len 0083  
                                i2c_int_handler@err 007E                               ??_init_timer1_lthread 0094  
                            ??_InterruptHandlerHigh 0084                                   _ToMainLow_recvmsg 17F8  
                                 _ToMainLow_sendmsg 1B1C                                  main@last_reg_recvd 0298  
                                   ___lwmod@divisor 0094                                __end_ofi2_in_low_int 18B2  
                                ?_ToMainLow_recvmsg 018F                                 __end_of_Delay1KTCYx 1B90  
                                 ??_i2c_int_handler 007D                                     ___lwmod@counter 0096  
                                ?_ToMainLow_sendmsg 0017                                   ??_i2c_master_send 0192  
                                i2c_master_send@msg 0190                                         _SSPCON1bits 000FC6  
                                       _SSPCON2bits 000FC5                                      i2send_msg@data 006E  
                             ??_InterruptHandlerLow 0039                                 ??_ToMainLow_recvmsg 00A5  
                                    i2send_msg@qmsg 0074                                      i2send_msg@slot 0073  
                                    i2send_msg@qptr 006A                                 ??_ToMainLow_sendmsg 001A  
                               _FromMainLow_recvmsg 1AAA                                 _FromMainLow_sendmsg 1A22  
